TN:
SF:/__w/saurion/saurion/src/linked_list.c
FN:17,create_node
FNDA:9934,create_node
FN:59,list_insert
FNDA:9934,list_insert
FN:81,free_node
FNDA:9934,free_node
FN:93,list_delete_node
FNDA:8096,list_delete_node
FN:124,list_free
FNDA:58,list_free
DA:17,9934
DA:18,9934
DA:24,9934
DA:25,9934
DA:26,9934
DA:27,9934
DA:28,9152
DA:35,21948
DA:36,12796
DA:48,21948
DA:49,12796
DA:50,12796
DA:51,12796
DA:52,12796
DA:55,9934
DA:56,9934
DA:59,9934
DA:60,9934
DA:66,9934
DA:67,9934
DA:68,46
DA:69,46
DA:70,46
DA:72,9888
DA:73,355818
DA:74,345930
DA:76,9888
DA:77,9888
DA:78,9888
DA:81,9934
DA:82,9934
DA:83,21948
DA:84,12796
DA:85,12796
DA:87,9152
DA:89,9934
DA:90,9934
DA:91,9934
DA:93,8096
DA:94,8096
DA:95,8096
DA:96,8096
DA:99,8096
DA:100,42
DA:101,42
DA:102,42
DA:103,42
DA:107,164030
DA:108,155976
DA:109,155976
DA:113,8054
DA:114,2
DA:115,2
DA:119,8052
DA:120,8052
DA:121,8052
DA:124,58
DA:125,58
DA:126,58
DA:129,1898
DA:130,1840
DA:131,1840
DA:132,1840
DA:135,58
DA:136,58
DA:137,58
end_of_record
TN:
SF:/__w/saurion/saurion/src/low_saurion.c
FN:36,next
FNDA:7860,next
FN:41,htonll
FNDA:4454,htonll
FN:51,ntohll
FNDA:8434,ntohll
FN:61,free_request
FNDA:0,free_request
FN:77,initialize_iovec
FNDA:8126,initialize_iovec
FN:114,allocate_iovec
FNDA:8126,allocate_iovec
FN:131,set_request
FNDA:8128,set_request
FN:186,add_accept
FNDA:180,add_accept
FN:219,add_efd
FNDA:64,add_efd
FN:250,add_read
FNDA:3452,add_read
FN:282,add_read_continue
FNDA:4,add_read_continue
FN:310,add_write
FNDA:4404,add_write
FN:343,handle_accept
FNDA:164,handle_accept
FN:350,read_chunk
FNDA:8444,read_chunk
FN:495,handle_read
FNDA:3292,handle_read
FN:527,handle_write
FNDA:4404,handle_write
FN:533,handle_error
FNDA:0,handle_error
FN:540,handle_close
FNDA:164,handle_close
FN:548,EXTERNAL_set_socket
FNDA:16,EXTERNAL_set_socket
FN:585,saurion_create
FNDA:16,saurion_create
FN:677,saurion_worker_master
FNDA:16,saurion_worker_master
FN:745,saurion_worker_slave
FNDA:48,saurion_worker_slave
FN:808,saurion_start
FNDA:16,saurion_start
FN:822,saurion_stop
FNDA:16,saurion_stop
FN:832,saurion_destroy
FNDA:16,saurion_destroy
FN:858,saurion_send
FNDA:4404,saurion_send
DA:36,7860
DA:37,7860
DA:38,7860
DA:41,4454
DA:42,4454
DA:43,4454
DA:44,4454
DA:45,4454
DA:46,4454
DA:48,0
DA:51,8434
DA:52,8434
DA:53,8434
DA:54,8434
DA:55,8434
DA:56,8434
DA:58,0
DA:61,0
DA:62,0
DA:63,0
DA:64,0
DA:66,0
DA:67,0
DA:68,0
DA:70,0
DA:71,0
DA:72,0
DA:73,0
DA:74,0
DA:77,8126
DA:79,8126
DA:80,2
DA:82,8124
DA:83,4600
DA:84,4600
DA:85,4600
DA:86,4600
DA:87,4600
DA:88,4586
DA:89,4454
DA:90,4454
DA:91,4454
DA:92,4454
DA:94,132
DA:96,4586
DA:97,4454
DA:98,4454
DA:99,4454
DA:102,4600
DA:103,4600
DA:104,4600
DA:105,4600
DA:106,4600
DA:108,3524
DA:110,8124
DA:114,8126
DA:115,8126
DA:116,2
DA:118,8124
DA:119,8124
DA:120,0
DA:122,8124
DA:123,8124
DA:124,3518
DA:126,8124
DA:127,8124
DA:131,8128
DA:132,8128
DA:133,8128
DA:134,4416
DA:136,8128
DA:137,8128
DA:139,8128
DA:140,8128
DA:141,0
DA:143,8128
DA:144,8118
DA:145,8118
DA:146,8118
DA:147,8118
DA:148,8118
DA:149,8118
DA:151,10
DA:152,10
DA:153,10
DA:154,10
DA:155,10
DA:156,10
DA:157,10
DA:158,10
DA:160,8128
DA:161,8128
DA:162,8128
DA:163,8128
DA:164,0
DA:165,0
DA:167,16108
DA:168,7980
DA:169,0
DA:170,0
DA:172,7980
DA:173,0
DA:174,0
DA:177,8128
DA:178,0
DA:179,0
DA:181,8128
DA:182,8128
DA:186,180
DA:188,180
DA:189,180
DA:190,360
DA:191,180
DA:192,180
DA:193,0
DA:194,0
DA:196,180
DA:197,180
DA:198,0
DA:199,0
DA:200,0
DA:201,0
DA:203,180
DA:204,180
DA:205,180
DA:206,180
DA:207,180
DA:208,0
DA:209,0
DA:210,0
DA:211,0
DA:212,0
DA:214,180
DA:216,180
DA:217,180
DA:219,64
DA:220,64
DA:221,64
DA:222,128
DA:223,64
DA:224,64
DA:225,64
DA:226,0
DA:227,0
DA:229,64
DA:230,64
DA:231,0
DA:232,0
DA:233,0
DA:235,64
DA:236,64
DA:237,64
DA:238,64
DA:239,64
DA:240,0
DA:241,0
DA:242,0
DA:243,0
DA:245,64
DA:247,64
DA:248,64
DA:250,3452
DA:251,3452
DA:252,3452
DA:253,3452
DA:254,6904
DA:255,3452
DA:256,3452
DA:257,3452
DA:258,0
DA:259,0
DA:261,3452
DA:262,3452
DA:263,0
DA:264,0
DA:265,0
DA:267,3452
DA:268,3452
DA:269,3452
DA:270,3452
DA:271,3452
DA:272,0
DA:273,0
DA:274,0
DA:275,0
DA:277,3452
DA:279,3452
DA:280,3452
DA:282,4
DA:283,4
DA:284,4
DA:285,8
DA:286,4
DA:287,4
DA:288,4
DA:289,0
DA:290,0
DA:292,4
DA:293,0
DA:294,0
DA:295,0
DA:297,4
DA:298,4
DA:299,4
DA:300,0
DA:301,0
DA:302,0
DA:303,0
DA:305,4
DA:307,4
DA:308,4
DA:310,4404
DA:311,4404
DA:312,4404
DA:313,8808
DA:314,4404
DA:315,4404
DA:316,4404
DA:317,0
DA:318,0
DA:320,4404
DA:321,4404
DA:322,0
DA:323,0
DA:324,0
DA:326,4404
DA:327,4404
DA:328,4404
DA:329,4404
DA:330,4404
DA:331,0
DA:332,0
DA:333,0
DA:334,0
DA:335,0
DA:337,4404
DA:339,4404
DA:340,4404
DA:343,164
DA:344,164
DA:345,164
DA:347,164
DA:350,8444
DA:352,8444
DA:353,2
DA:357,8442
DA:358,16890
DA:359,8448
DA:361,8442
DA:362,8442
DA:363,8442
DA:364,8442
DA:365,8442
DA:366,8442
DA:367,8442
DA:369,8
DA:370,8
DA:371,8
DA:372,8
DA:373,8
DA:374,8
DA:375,6
DA:376,6
DA:377,6
DA:378,6
DA:379,6
DA:381,2
DA:382,2
DA:384,8434
DA:386,5132
DA:387,5132
DA:388,5132
DA:389,5132
DA:390,5132
DA:391,5132
DA:392,5132
DA:393,5132
DA:394,5130
DA:395,5130
DA:397,2
DA:398,2
DA:399,2
DA:400,2
DA:404,3302
DA:405,3302
DA:406,3302
DA:407,3302
DA:408,3302
DA:409,3302
DA:410,3302
DA:411,3302
DA:412,3296
DA:413,3296
DA:415,6
DA:416,6
DA:417,6
DA:421,8442
DA:424,8442
DA:426,8448
DA:427,8448
DA:428,8448
DA:429,8448
DA:430,8448
DA:431,8448
DA:433,8432
DA:434,4
DA:436,8432
DA:437,8432
DA:438,8432
DA:440,16
DA:441,16
DA:442,16
DA:443,10
DA:445,6
DA:450,8442
DA:451,10
DA:452,10
DA:453,10
DA:454,10
DA:456,8432
DA:457,8432
DA:459,8442
DA:460,8432
DA:461,8432
DA:462,5136
DA:463,5136
DA:465,3296
DA:466,3296
DA:471,8442
DA:474,4
DA:475,4
DA:476,4
DA:477,4
DA:478,4
DA:479,4
DA:480,6
DA:481,188
DA:482,186
DA:483,186
DA:484,2
DA:485,2
DA:486,2
DA:490,2
DA:492,8438
DA:495,3292
DA:496,3292
DA:497,3292
DA:499,8412
DA:500,0
DA:503,8412
DA:504,5120
DA:505,5120
DA:507,5120
DA:508,5120
DA:509,5120
DA:512,3292
DA:513,4
DA:514,4
DA:517,3288
DA:518,3288
DA:520,3288
DA:521,3288
DA:522,3288
DA:524,3288
DA:527,4404
DA:528,4404
DA:529,4404
DA:531,4404
DA:533,0
DA:534,0
DA:535,0
DA:536,0
DA:538,0
DA:540,164
DA:541,164
DA:542,164
DA:544,164
DA:545,164
DA:548,16
DA:549,16
DA:552,16
DA:553,16
DA:554,0
DA:557,16
DA:558,16
DA:559,0
DA:561,16
DA:562,0
DA:565,16
DA:566,16
DA:567,16
DA:568,16
DA:573,16
DA:574,0
DA:577,16
DA:578,0
DA:581,16
DA:585,16
DA:587,16
DA:588,16
DA:589,0
DA:592,16
DA:593,16
DA:594,16
DA:595,0
DA:596,0
DA:598,16
DA:599,16
DA:600,0
DA:601,0
DA:603,16
DA:604,16
DA:605,0
DA:606,0
DA:608,80
DA:609,64
DA:612,16
DA:613,16
DA:614,16
DA:615,16
DA:616,16
DA:617,16
DA:618,16
DA:619,16
DA:620,16
DA:621,16
DA:622,16
DA:623,16
DA:624,16
DA:625,16
DA:626,16
DA:627,16
DA:628,16
DA:630,16
DA:631,16
DA:632,0
DA:633,0
DA:634,0
DA:636,80
DA:637,64
DA:638,64
DA:639,0
DA:640,0
DA:642,0
DA:643,0
DA:644,0
DA:645,0
DA:649,16
DA:650,16
DA:651,0
DA:652,0
DA:654,0
DA:655,0
DA:656,0
DA:657,0
DA:659,80
DA:660,64
DA:661,64
DA:662,64
DA:663,0
DA:664,0
DA:666,0
DA:667,0
DA:668,0
DA:669,0
DA:670,0
DA:673,16
DA:674,16
DA:677,16
DA:678,16
DA:679,16
DA:680,16
DA:682,16
DA:684,16
DA:685,16
DA:687,16
DA:688,16
DA:689,16
DA:690,16
DA:691,2124
DA:692,2140
DA:693,2140
DA:694,0
DA:695,0
DA:697,2140
DA:698,2140
DA:699,0
DA:700,0
DA:702,2140
DA:703,0
DA:704,0
DA:706,2140
DA:707,16
DA:708,16
DA:709,16
DA:712,2124
DA:713,2124
DA:714,164
DA:715,164
DA:716,164
DA:717,164
DA:718,164
DA:719,164
DA:720,855
DA:721,855
DA:722,0
DA:724,855
DA:725,37
DA:727,855
DA:728,818
DA:730,855
DA:731,855
DA:732,1105
DA:733,1105
DA:734,1105
DA:735,1105
DA:738,16
DA:739,16
DA:740,16
DA:741,16
DA:742,16
DA:745,48
DA:746,48
DA:747,48
DA:748,48
DA:749,48
DA:750,48
DA:751,48
DA:753,48
DA:755,48
DA:756,48
DA:757,48
DA:758,48
DA:759,5900
DA:760,5948
DA:761,5948
DA:762,0
DA:763,0
DA:765,5948
DA:766,5948
DA:767,0
DA:768,0
DA:770,5948
DA:771,0
DA:772,0
DA:774,5948
DA:775,48
DA:776,48
DA:777,48
DA:780,5900
DA:781,5900
DA:782,2601
DA:783,2601
DA:784,0
DA:786,2601
DA:787,127
DA:789,2601
DA:790,2474
DA:792,2601
DA:793,2601
DA:794,3299
DA:795,3299
DA:796,3299
DA:797,3299
DA:800,48
DA:801,48
DA:802,48
DA:803,48
DA:804,48
DA:808,16
DA:809,16
DA:810,16
DA:811,16
DA:812,16
DA:813,64
DA:814,48
DA:815,48
DA:816,48
DA:817,48
DA:819,16
DA:822,16
DA:823,16
DA:824,80
DA:825,64
DA:826,0
DA:829,16
DA:830,16
DA:832,16
DA:833,16
DA:834,22
DA:835,6
DA:837,16
DA:838,16
DA:839,80
DA:840,64
DA:841,64
DA:843,16
DA:844,16
DA:845,80
DA:846,64
DA:848,16
DA:849,16
DA:850,0
DA:852,16
DA:853,16
DA:854,16
DA:855,16
DA:856,16
DA:858,4404
DA:859,4404
DA:860,4404
end_of_record
SF:/usr/include/liburing.h
FN:286,io_uring_cq_advance
FNDA:8088,io_uring_cq_advance
FN:304,io_uring_cqe_seen
FNDA:8088,io_uring_cqe_seen
FN:319,io_uring_sqe_set_data
FNDA:8104,io_uring_sqe_set_data
FN:363,io_uring_prep_rw
FNDA:8104,io_uring_prep_rw
FN:428,io_uring_prep_readv
FNDA:3520,io_uring_prep_readv
FN:452,io_uring_prep_writev
FNDA:4404,io_uring_prep_writev
FN:576,io_uring_prep_accept
FNDA:180,io_uring_prep_accept
FN:1171,io_uring_wait_cqe_nr
FNDA:5176,io_uring_wait_cqe_nr
FN:1183,__io_uring_peek_cqe
FNDA:8088,__io_uring_peek_cqe
FN:1242,io_uring_wait_cqe
FNDA:8088,io_uring_wait_cqe
FN:1258,_io_uring_get_sqe
FNDA:8104,_io_uring_get_sqe
FN:1339,io_uring_get_sqe
FNDA:8104,io_uring_get_sqe
DA:286,8088
DA:289,8088
DA:290,8088
DA:296,8088
DA:298,8088
DA:304,8088
DA:307,8088
DA:308,8088
DA:309,8088
DA:319,8104
DA:321,8104
DA:322,8104
DA:363,8104
DA:367,8104
DA:368,8104
DA:369,8104
DA:370,8104
DA:371,8104
DA:372,8104
DA:373,8104
DA:374,8104
DA:375,8104
DA:376,8104
DA:377,8104
DA:378,8104
DA:379,8104
DA:380,8104
DA:428,3520
DA:432,3520
DA:433,3520
DA:452,4404
DA:456,4404
DA:457,4404
DA:576,180
DA:580,180
DA:582,180
DA:583,180
DA:1171,5176
DA:1175,5176
DA:1183,8088
DA:1188,8088
DA:1190,8088
DA:1191,8088
DA:1193,8088
DA:1194,0
DA:1196,0
DA:1197,8088
DA:1198,8088
DA:1200,8088
DA:1201,8088
DA:1202,8088
DA:1203,5176
DA:1205,2912
DA:1206,2912
DA:1207,0
DA:1208,0
DA:1209,0
DA:1210,0
DA:1211,0
DA:1212,0
DA:1213,0
DA:1216,2912
DA:1219,8088
DA:1220,8088
DA:1221,0
DA:1222,8088
DA:1242,8088
DA:1245,8088
DA:1246,2912
DA:1248,5176
DA:1258,8104
DA:1260,8104
DA:1261,8104
DA:1262,8104
DA:1264,8104
DA:1265,0
DA:1266,8104
DA:1267,8104
DA:1269,0
DA:1271,8104
DA:1274,8104
DA:1275,8104
DA:1276,8104
DA:1279,0
DA:1339,8104
DA:1341,8104
end_of_record
TN:
SF:/__w/saurion/saurion/src/cthreadpool.cpp
FN:3,ThreadPool_create
FNDA:16,ThreadPool_create
FN:5,ThreadPool_create_default
FNDA:0,ThreadPool_create_default
FN:7,ThreadPool_init
FNDA:16,ThreadPool_init
FN:9,ThreadPool_stop
FNDA:0,ThreadPool_stop
FN:11,ThreadPool_add
FNDA:0,ThreadPool_add
FN:13,ThreadPool_add_default
FNDA:64,ThreadPool_add_default
FN:15,ThreadPool_new_queue
FNDA:0,ThreadPool_new_queue
FN:17,ThreadPool_remove_queue
FNDA:0,ThreadPool_remove_queue
FN:19,ThreadPool_empty
FNDA:0,ThreadPool_empty
FN:21,ThreadPool_wait_empty
FNDA:16,ThreadPool_wait_empty
FN:23,ThreadPool_destroy
FNDA:16,ThreadPool_destroy
DA:3,16
DA:5,0
DA:7,16
DA:9,0
DA:11,0
DA:13,64
DA:15,0
DA:17,0
DA:19,0
DA:21,16
DA:23,16
end_of_record
TN:
SF:/usr/local/include/c++/14.2.0/bits/unordered_map.h
FN:148,_ZNSt13unordered_mapIjPN10ThreadPool10AsyncQueueESt4hashIjESt8equal_toIjESaISt4pairIKjS2_EEEC2Ev
FNDA:86,_ZNSt13unordered_mapIjPN10ThreadPool10AsyncQueueESt4hashIjESt8equal_toIjESaISt4pairIKjS2_EEEC2Ev
FN:332,_ZNSt13unordered_mapIjPN10ThreadPool10AsyncQueueESt4hashIjESt8equal_toIjESaISt4pairIKjS2_EEE5beginEv
FNDA:371171,_ZNSt13unordered_mapIjPN10ThreadPool10AsyncQueueESt4hashIjESt8equal_toIjESaISt4pairIKjS2_EEE5beginEv
FN:354,_ZNSt13unordered_mapIjPN10ThreadPool10AsyncQueueESt4hashIjESt8equal_toIjESaISt4pairIKjS2_EEE3endEv
FNDA:1260015,_ZNSt13unordered_mapIjPN10ThreadPool10AsyncQueueESt4hashIjESt8equal_toIjESaISt4pairIKjS2_EEE3endEv
FN:395,_ZNSt13unordered_mapIjPN10ThreadPool10AsyncQueueESt4hashIjESt8equal_toIjESaISt4pairIKjS2_EEE7emplaceIJRjS2_EEES7_INSt8__detail14_Node_iteratorIS9_Lb0ELb0EEEbEDpOT_
FNDA:184,_ZNSt13unordered_mapIjPN10ThreadPool10AsyncQueueESt4hashIjESt8equal_toIjESaISt4pairIKjS2_EEE7emplaceIJRjS2_EEES7_INSt8__detail14_Node_iteratorIS9_Lb0ELb0EEEbEDpOT_
FN:770,_ZNSt13unordered_mapIjPN10ThreadPool10AsyncQueueESt4hashIjESt8equal_toIjESaISt4pairIKjS2_EEE5eraseERS8_
FNDA:48,_ZNSt13unordered_mapIjPN10ThreadPool10AsyncQueueESt4hashIjESt8equal_toIjESaISt4pairIKjS2_EEE5eraseERS8_
FN:876,_ZNSt13unordered_mapIjPN10ThreadPool10AsyncQueueESt4hashIjESt8equal_toIjESaISt4pairIKjS2_EEE4findERS8_
FNDA:632,_ZNSt13unordered_mapIjPN10ThreadPool10AsyncQueueESt4hashIjESt8equal_toIjESaISt4pairIKjS2_EEE4findERS8_
FN:1004,_ZNSt13unordered_mapIjPN10ThreadPool10AsyncQueueESt4hashIjESt8equal_toIjESaISt4pairIKjS2_EEE2atERS8_
FNDA:160222,_ZNSt13unordered_mapIjPN10ThreadPool10AsyncQueueESt4hashIjESt8equal_toIjESaISt4pairIKjS2_EEE2atERS8_
DA:148,86
DA:332,371171
DA:333,371171
DA:354,1260015
DA:355,1260015
DA:395,184
DA:396,184
DA:770,48
DA:771,48
DA:876,632
DA:877,632
DA:1004,160222
DA:1005,160222
end_of_record
SF:/__w/saurion/saurion/src/threadpool.cpp
FN:13,_ZN4TaskC2EPFvPvES0_
FNDA:80110,_ZN4TaskC2EPFvPvES0_
FN:16,_ZN10ThreadPool10AsyncQueueC2Ej
FNDA:184,_ZN10ThreadPool10AsyncQueueC2Ej
FN:18,_ZN10ThreadPool10AsyncQueueD2Ev
FNDA:184,_ZN10ThreadPool10AsyncQueueD2Ev
FN:20,_ZN10ThreadPool10AsyncQueue4pushEP4Task
FNDA:80110,_ZN10ThreadPool10AsyncQueue4pushEP4Task
FN:25,_ZN10ThreadPool10AsyncQueue5frontEv
FNDA:143549,_ZN10ThreadPool10AsyncQueue5frontEv
FN:37,_ZN10ThreadPool10AsyncQueue3popEv
FNDA:80110,_ZN10ThreadPool10AsyncQueue3popEv
FN:43,_ZN10ThreadPool10AsyncQueue5emptyEv
FNDA:1999846,_ZN10ThreadPool10AsyncQueue5emptyEv
FN:52,_ZN10ThreadPool15AsyncMultiQueueC2Ev
FNDA:86,_ZN10ThreadPool15AsyncMultiQueueC2Ev
FN:56,_ZN10ThreadPool15AsyncMultiQueueD2Ev
FNDA:86,_ZN10ThreadPool15AsyncMultiQueueD2Ev
FN:62,_ZN10ThreadPool15AsyncMultiQueue9new_queueEjj
FNDA:386,_ZN10ThreadPool15AsyncMultiQueue9new_queueEjj
FN:68,_ZN10ThreadPool15AsyncMultiQueue12remove_queueEj
FNDA:246,_ZN10ThreadPool15AsyncMultiQueue12remove_queueEj
FN:77,_ZN10ThreadPool15AsyncMultiQueue4pushEjPFvPvES1_
FNDA:80114,_ZN10ThreadPool15AsyncMultiQueue4pushEjPFvPvES1_
FN:80,_ZN10ThreadPool15AsyncMultiQueue5frontERj
FNDA:149369,_ZN10ThreadPool15AsyncMultiQueue5frontERj
FN:100,_ZN10ThreadPool15AsyncMultiQueue3popEj
FNDA:80108,_ZN10ThreadPool15AsyncMultiQueue3popEj
FN:101,_ZN10ThreadPool15AsyncMultiQueue5clearEv
FNDA:86,_ZN10ThreadPool15AsyncMultiQueue5clearEv
FN:115,_ZN10ThreadPool15AsyncMultiQueue5emptyEv
FNDA:227829,_ZN10ThreadPool15AsyncMultiQueue5emptyEv
FN:128,_ZN10ThreadPoolC2Ev
FNDA:58,_ZN10ThreadPoolC2Ev
FN:130,_ZN10ThreadPoolC2Em
FNDA:86,_ZN10ThreadPoolC2Em
FN:137,_ZN10ThreadPool4initEv
FNDA:86,_ZN10ThreadPool4initEv
FN:150,_ZN10ThreadPool4stopEv
FNDA:108,_ZN10ThreadPool4stopEv
FN:169,_ZN10ThreadPool3addEjPFvPvES0_
FNDA:80358,_ZN10ThreadPool3addEjPFvPvES0_
FN:189,_ZN10ThreadPool3addEPFvPvES0_
FNDA:20326,_ZN10ThreadPool3addEPFvPvES0_
FN:192,_ZN10ThreadPool9new_queueEjj
FNDA:300,_ZN10ThreadPool9new_queueEjj
FN:202,_ZN10ThreadPool12remove_queueEj
FNDA:2246,_ZN10ThreadPool12remove_queueEj
FN:218,_ZN10ThreadPool5emptyEv
FNDA:75861,_ZN10ThreadPool5emptyEv
FN:219,_ZN10ThreadPool14wait_closeableEv
FNDA:69261,_ZN10ThreadPool14wait_closeableEv
FN:226,_ZN10ThreadPool10wait_emptyEv
FNDA:100,_ZN10ThreadPool10wait_emptyEv
FN:233,_ZN10ThreadPoolD2Ev
FNDA:86,_ZN10ThreadPoolD2Ev
FN:240,_ZN10ThreadPool13thread_workerEv
FNDA:248,_ZN10ThreadPool13thread_workerEv
FN:265,_ZN10ThreadPool12thread_entryEPv
FNDA:248,_ZN10ThreadPool12thread_entryEPv
DA:13,80110
DA:16,184
DA:18,184
DA:20,80110
DA:21,80110
DA:22,80110
DA:23,80110
DA:24,80110
DA:25,143549
DA:26,143549
DA:27,143549
DA:28,63439
DA:29,63439
DA:31,80110
DA:32,80110
DA:33,80110
DA:34,80110
DA:35,80110
DA:37,80110
DA:38,80110
DA:39,80110
DA:40,80110
DA:41,80110
DA:43,1999846
DA:44,1999846
DA:45,1999846
DA:46,1999846
DA:47,1999846
DA:52,86
DA:53,86
DA:54,86
DA:55,86
DA:56,86
DA:57,222
DA:58,136
DA:60,86
DA:62,386
DA:63,386
DA:64,202
DA:66,184
DA:67,184
DA:68,246
DA:69,246
DA:70,246
DA:71,198
DA:73,48
DA:74,48
DA:75,48
DA:77,80114
DA:78,80114
DA:79,80110
DA:80,149369
DA:81,149369
DA:82,5822
DA:84,143547
DA:85,143547
DA:86,1073976
DA:87,1031464
DA:88,143168
DA:90,1031464
DA:91,101035
DA:93,930429
DA:95,143547
DA:96,80108
DA:97,80108
DA:98,80108
DA:100,80108
DA:101,86
DA:102,86
DA:103,84
DA:105,2
DA:106,4
DA:107,4
DA:108,2
DA:109,2
DA:111,2
DA:115,227829
DA:116,981191
DA:117,968378
DA:118,215016
DA:121,12813
DA:128,58
DA:130,86
DA:131,86
DA:132,86
DA:133,328
DA:134,86
DA:135,172
DA:137,86
DA:138,86
DA:139,18
DA:141,68
DA:142,68
DA:143,68
DA:144,316
DA:145,248
DA:146,248
DA:148,68
DA:150,108
DA:151,108
DA:152,42
DA:154,66
DA:155,66
DA:156,66
DA:158,66
DA:159,66
DA:160,66
DA:161,66
DA:163,314
DA:164,248
DA:166,66
DA:167,66
DA:169,80358
DA:170,80358
DA:171,204
DA:173,80154
DA:174,40
DA:176,80114
DA:177,80114
DA:179,80114
DA:180,4
DA:181,4
DA:182,4
DA:183,80114
DA:184,80114
DA:185,80114
DA:186,4
DA:188,80110
DA:189,20326
DA:190,20326
DA:191,20102
DA:192,300
DA:193,300
DA:195,300
DA:196,202
DA:197,202
DA:198,202
DA:199,202
DA:200,98
DA:201,98
DA:202,2246
DA:203,2246
DA:204,246
DA:205,246
DA:207,246
DA:208,198
DA:209,198
DA:210,198
DA:211,246
DA:212,246
DA:213,246
DA:214,198
DA:217,2048
DA:218,75861
DA:219,69261
DA:220,69261
DA:221,75847
DA:222,6586
DA:224,69261
DA:225,69261
DA:226,100
DA:227,100
DA:228,2513
DA:229,2413
DA:231,100
DA:232,100
DA:233,86
DA:234,86
DA:235,86
DA:236,86
DA:237,86
DA:238,86
DA:240,248
DA:242,248
DA:243,149617
DA:246,149369
DA:247,149369
DA:248,80108
DA:249,80108
DA:251,80108
DA:252,20
DA:253,20
DA:254,80108
DA:255,80108
DA:256,80108
DA:257,80108
DA:258,80108
DA:259,69261
DA:260,69261
DA:261,69261
DA:262,69261
DA:264,248
DA:265,248
DA:266,248
DA:267,248
DA:268,248
end_of_record
SF:/usr/local/include/c++/14.2.0/bits/stl_pair.h
FN:881,_ZNSt4pairIKjPN10ThreadPool10AsyncQueueEEC2IRjS3_Lb1EEEOT_OT0_
FNDA:184,_ZNSt4pairIKjPN10ThreadPool10AsyncQueueEEC2IRjS3_Lb1EEEOT_OT0_
FN:881,_ZNSt4pairINSt8__detail14_Node_iteratorIS_IKjPN10ThreadPool10AsyncQueueEELb0ELb0EEEbEC2IRS7_bLb1EEEOT_OT0_
FNDA:184,_ZNSt4pairINSt8__detail14_Node_iteratorIS_IKjPN10ThreadPool10AsyncQueueEELb0ELb0EEEbEC2IRS7_bLb1EEEOT_OT0_
FN:881,_ZNSt4pairINSt8__detail14_Node_iteratorIS_IKjPN10ThreadPool10AsyncQueueEELb0ELb0EEEbEC2IS7_bLb1EEEOT_OT0_
FNDA:0,_ZNSt4pairINSt8__detail14_Node_iteratorIS_IKjPN10ThreadPool10AsyncQueueEELb0ELb0EEEbEC2IS7_bLb1EEEOT_OT0_
DA:881,184
DA:882,184
DA:883,184
DA:881,184
DA:882,184
DA:883,184
DA:881,0
DA:882,0
DA:883,0
end_of_record
SF:/usr/local/include/c++/14.2.0/bits/cpp_type_traits.h
FN:607,_ZSt12__miter_baseIPPP4TaskET_S4_
FNDA:308,_ZSt12__miter_baseIPPP4TaskET_S4_
DA:607,308
DA:608,308
end_of_record
SF:/usr/local/include/c++/14.2.0/bits/alloc_traits.h
DA:478,1880
DA:513,1880
DA:534,80294
DA:538,80294
DA:558,80294
DA:570,1224
end_of_record
SF:/usr/local/include/c++/14.2.0/bits/functional_hash.h
FN:166,_ZNKSt4hashIjEclEj
FNDA:161170,_ZNKSt4hashIjEclEj
DA:166,161170
end_of_record
SF:/usr/local/include/c++/14.2.0/bits/hashtable_policy.h
FN:112,_ZNKSt8__detail10_Select1stclIRKSt4pairIKjPN10ThreadPool10AsyncQueueEEEEONS0_10__1st_typeIT_E4typeEOSB_
FNDA:160708,_ZNKSt8__detail10_Select1stclIRKSt4pairIKjPN10ThreadPool10AsyncQueueEEEEONS0_10__1st_typeIT_E4typeEOSB_
FN:112,_ZNKSt8__detail10_Select1stclIRSt4pairIKjPN10ThreadPool10AsyncQueueEEEEONS0_10__1st_typeIT_E4typeEOSA_
FNDA:184,_ZNKSt8__detail10_Select1stclIRSt4pairIKjPN10ThreadPool10AsyncQueueEEEEONS0_10__1st_typeIT_E4typeEOSA_
FN:303,_ZNSt8__detail22_Hashtable_hash_traitsISt4hashIjEE22__small_size_thresholdEv
FNDA:161270,_ZNSt8__detail22_Hashtable_hash_traitsISt4hashIjEE22__small_size_thresholdEv
FN:319,_ZNSt8__detail15_Hash_node_baseC2Ev
FNDA:302,_ZNSt8__detail15_Hash_node_baseC2Ev
FN:386,_ZNKSt8__detail10_Hash_nodeISt4pairIKjPN10ThreadPool10AsyncQueueEELb0EE7_M_nextEv
FNDA:1827878,_ZNKSt8__detail10_Hash_nodeISt4pairIKjPN10ThreadPool10AsyncQueueEELb0EE7_M_nextEv
FN:398,_ZNSt8__detail19_Node_iterator_baseISt4pairIKjPN10ThreadPool10AsyncQueueEELb0EEC2Ev
FNDA:86,_ZNSt8__detail19_Node_iterator_baseISt4pairIKjPN10ThreadPool10AsyncQueueEELb0EEC2Ev
FN:399,_ZNSt8__detail19_Node_iterator_baseISt4pairIKjPN10ThreadPool10AsyncQueueEELb0EEC2EPNS_10_Hash_nodeIS6_Lb0EEE
FNDA:1792272,_ZNSt8__detail19_Node_iterator_baseISt4pairIKjPN10ThreadPool10AsyncQueueEELb0EEC2EPNS_10_Hash_nodeIS6_Lb0EEE
FN:403,_ZNSt8__detail19_Node_iterator_baseISt4pairIKjPN10ThreadPool10AsyncQueueEELb0EE7_M_incrEv
FNDA:1827476,_ZNSt8__detail19_Node_iterator_baseISt4pairIKjPN10ThreadPool10AsyncQueueEELb0EE7_M_incrEv
FN:407,_ZNSt8__detaileqERKNS_19_Node_iterator_baseISt4pairIKjPN10ThreadPool10AsyncQueueEELb0EEES9_
FNDA:1031710,_ZNSt8__detaileqERKNS_19_Node_iterator_baseISt4pairIKjPN10ThreadPool10AsyncQueueEELb0EEES9_
FN:413,_ZNSt8__detailneERKNS_19_Node_iterator_baseISt4pairIKjPN10ThreadPool10AsyncQueueEELb0EEES9_
FNDA:2055779,_ZNSt8__detailneERKNS_19_Node_iterator_baseISt4pairIKjPN10ThreadPool10AsyncQueueEELb0EEES9_
FN:439,_ZNSt8__detail14_Node_iteratorISt4pairIKjPN10ThreadPool10AsyncQueueEELb0ELb0EEC2Ev
FNDA:86,_ZNSt8__detail14_Node_iteratorISt4pairIKjPN10ThreadPool10AsyncQueueEELb0ELb0EEC2Ev
FN:442,_ZNSt8__detail14_Node_iteratorISt4pairIKjPN10ThreadPool10AsyncQueueEELb0ELb0EEC2EPNS_10_Hash_nodeIS6_Lb0EEE
FNDA:1792272,_ZNSt8__detail14_Node_iteratorISt4pairIKjPN10ThreadPool10AsyncQueueEELb0ELb0EEC2EPNS_10_Hash_nodeIS6_Lb0EEE
FN:446,_ZNKSt8__detail14_Node_iteratorISt4pairIKjPN10ThreadPool10AsyncQueueEELb0ELb0EEdeEv
FNDA:968514,_ZNKSt8__detail14_Node_iteratorISt4pairIKjPN10ThreadPool10AsyncQueueEELb0ELb0EEdeEv
FN:450,_ZNKSt8__detail14_Node_iteratorISt4pairIKjPN10ThreadPool10AsyncQueueEELb0ELb0EEptEv
FNDA:1415393,_ZNKSt8__detail14_Node_iteratorISt4pairIKjPN10ThreadPool10AsyncQueueEELb0ELb0EEptEv
FN:454,_ZNSt8__detail14_Node_iteratorISt4pairIKjPN10ThreadPool10AsyncQueueEELb0ELb0EEppEv
FNDA:1827476,_ZNSt8__detail14_Node_iteratorISt4pairIKjPN10ThreadPool10AsyncQueueEELb0ELb0EEppEv
FN:532,_ZNKSt8__detail18_Mod_range_hashingclEmm
FNDA:161276,_ZNKSt8__detail18_Mod_range_hashingclEmm
FN:550,_ZNSt8__detail20_Prime_rehash_policyC2Ef
FNDA:108,_ZNSt8__detail20_Prime_rehash_policyC2Ef
FN:577,_ZNKSt8__detail20_Prime_rehash_policy8_M_stateEv
FNDA:194,_ZNKSt8__detail20_Prime_rehash_policy8_M_stateEv
FN:585,_ZNSt8__detail20_Prime_rehash_policy8_M_resetEm
FNDA:0,_ZNSt8__detail20_Prime_rehash_policy8_M_resetEm
FN:730,_ZNSt8__detail17_RehashStateGuardINS_20_Prime_rehash_policyEEC2ERS1_
FNDA:194,_ZNSt8__detail17_RehashStateGuardINS_20_Prime_rehash_policyEEC2ERS1_
FN:736,_ZNSt8__detail17_RehashStateGuardINS_20_Prime_rehash_policyEED2Ev
FNDA:194,_ZNSt8__detail17_RehashStateGuardINS_20_Prime_rehash_policyEED2Ev
FN:810,_ZNSt8__detail9_Map_baseIjSt4pairIKjPN10ThreadPool10AsyncQueueEESaIS6_ENS_10_Select1stESt8equal_toIjESt4hashIjENS_18_Mod_range_hashingENS_20_Default_ranged_hashENS_20_Prime_rehash_policyENS_17_Hashtable_traitsILb0ELb0ELb1EEELb1EE2atERS2_
FNDA:160222,_ZNSt8__detail9_Map_baseIjSt4pairIKjPN10ThreadPool10AsyncQueueEESaIS6_ENS_10_Select1stESt8equal_toIjESt4hashIjENS_18_Mod_range_hashingENS_20_Default_ranged_hashENS_20_Prime_rehash_policyENS_17_Hashtable_traitsILb0ELb0ELb1EEELb1EE2atERS2_
FN:1243,_ZNSt8__detail21_Hashtable_ebo_helperILi1ESt4hashIjELb1EEC2Ev
FNDA:86,_ZNSt8__detail21_Hashtable_ebo_helperILi1ESt4hashIjELb1EEC2Ev
FN:1243,_ZNSt8__detail21_Hashtable_ebo_helperILi0ESt8equal_toIjELb1EEC2Ev
FNDA:86,_ZNSt8__detail21_Hashtable_ebo_helperILi0ESt8equal_toIjELb1EEC2Ev
FN:1243,_ZNSt8__detail21_Hashtable_ebo_helperILi0ESaINS_10_Hash_nodeISt4pairIKjPN10ThreadPool10AsyncQueueEELb0EEEELb1EEC2Ev
FNDA:86,_ZNSt8__detail21_Hashtable_ebo_helperILi0ESaINS_10_Hash_nodeISt4pairIKjPN10ThreadPool10AsyncQueueEELb0EEEELb1EEC2Ev
FN:1250,_ZNKSt8__detail21_Hashtable_ebo_helperILi1ESt4hashIjELb1EE7_M_cgetEv
FNDA:161170,_ZNKSt8__detail21_Hashtable_ebo_helperILi1ESt4hashIjELb1EE7_M_cgetEv
FN:1250,_ZNKSt8__detail21_Hashtable_ebo_helperILi0ESt8equal_toIjELb1EE7_M_cgetEv
FNDA:160538,_ZNKSt8__detail21_Hashtable_ebo_helperILi0ESt8equal_toIjELb1EE7_M_cgetEv
FN:1251,_ZNSt8__detail21_Hashtable_ebo_helperILi0ESaINS_10_Hash_nodeISt4pairIKjPN10ThreadPool10AsyncQueueEELb0EEEELb1EE6_M_getEv
FNDA:728,_ZNSt8__detail21_Hashtable_ebo_helperILi0ESaINS_10_Hash_nodeISt4pairIKjPN10ThreadPool10AsyncQueueEELb0EEEELb1EE6_M_getEv
FN:1326,_ZNSt8__detail15_Hash_code_baseIjSt4pairIKjPN10ThreadPool10AsyncQueueEENS_10_Select1stESt4hashIjENS_18_Mod_range_hashingENS_20_Default_ranged_hashELb0EEC2Ev
FNDA:86,_ZNSt8__detail15_Hash_code_baseIjSt4pairIKjPN10ThreadPool10AsyncQueueEENS_10_Select1stESt4hashIjENS_18_Mod_range_hashingENS_20_Default_ranged_hashELb0EEC2Ev
FN:1331,_ZNKSt8__detail15_Hash_code_baseIjSt4pairIKjPN10ThreadPool10AsyncQueueEENS_10_Select1stESt4hashIjENS_18_Mod_range_hashingENS_20_Default_ranged_hashELb0EE12_M_hash_codeERS2_
FNDA:161170,_ZNKSt8__detail15_Hash_code_baseIjSt4pairIKjPN10ThreadPool10AsyncQueueEENS_10_Select1stESt4hashIjENS_18_Mod_range_hashingENS_20_Default_ranged_hashELb0EE12_M_hash_codeERS2_
FN:1356,_ZNKSt8__detail15_Hash_code_baseIjSt4pairIKjPN10ThreadPool10AsyncQueueEENS_10_Select1stESt4hashIjENS_18_Mod_range_hashingENS_20_Default_ranged_hashELb0EE15_M_bucket_indexEmm
FNDA:161088,_ZNKSt8__detail15_Hash_code_baseIjSt4pairIKjPN10ThreadPool10AsyncQueueEENS_10_Select1stESt4hashIjENS_18_Mod_range_hashingENS_20_Default_ranged_hashELb0EE15_M_bucket_indexEmm
FN:1360,_ZNKSt8__detail15_Hash_code_baseIjSt4pairIKjPN10ThreadPool10AsyncQueueEENS_10_Select1stESt4hashIjENS_18_Mod_range_hashingENS_20_Default_ranged_hashELb0EE15_M_bucket_indexERKNS_16_Hash_node_valueIS6_Lb0EEEm
FNDA:170,_ZNKSt8__detail15_Hash_code_baseIjSt4pairIKjPN10ThreadPool10AsyncQueueEENS_10_Select1stESt4hashIjENS_18_Mod_range_hashingENS_20_Default_ranged_hashELb0EE15_M_bucket_indexERKNS_16_Hash_node_valueIS6_Lb0EEEm
FN:1378,_ZNKSt8__detail15_Hash_code_baseIjSt4pairIKjPN10ThreadPool10AsyncQueueEENS_10_Select1stESt4hashIjENS_18_Mod_range_hashingENS_20_Default_ranged_hashELb0EE13_M_store_codeERNS_21_Hash_node_code_cacheILb0EEEm
FNDA:184,_ZNKSt8__detail15_Hash_code_baseIjSt4pairIKjPN10ThreadPool10AsyncQueueEENS_10_Select1stESt4hashIjENS_18_Mod_range_hashingENS_20_Default_ranged_hashELb0EE13_M_store_codeERNS_21_Hash_node_code_cacheILb0EEEm
FN:1400,_ZNKSt8__detail15_Hash_code_baseIjSt4pairIKjPN10ThreadPool10AsyncQueueEENS_10_Select1stESt4hashIjENS_18_Mod_range_hashingENS_20_Default_ranged_hashELb0EE7_M_hashEv
FNDA:161170,_ZNKSt8__detail15_Hash_code_baseIjSt4pairIKjPN10ThreadPool10AsyncQueueEENS_10_Select1stESt4hashIjENS_18_Mod_range_hashingENS_20_Default_ranged_hashELb0EE7_M_hashEv
FN:1708,_ZNSt8__detail15_Hashtable_baseIjSt4pairIKjPN10ThreadPool10AsyncQueueEENS_10_Select1stESt8equal_toIjESt4hashIjENS_18_Mod_range_hashingENS_20_Default_ranged_hashENS_17_Hashtable_traitsILb0ELb0ELb1EEEE9_S_equalsEmRKNS_21_Hash_node_code_cacheILb0EEE
FNDA:160538,_ZNSt8__detail15_Hashtable_baseIjSt4pairIKjPN10ThreadPool10AsyncQueueEENS_10_Select1stESt8equal_toIjESt4hashIjENS_18_Mod_range_hashingENS_20_Default_ranged_hashENS_17_Hashtable_traitsILb0ELb0ELb1EEEE9_S_equalsEmRKNS_21_Hash_node_code_cacheILb0EEE
FN:1726,_ZNSt8__detail15_Hashtable_baseIjSt4pairIKjPN10ThreadPool10AsyncQueueEENS_10_Select1stESt8equal_toIjESt4hashIjENS_18_Mod_range_hashingENS_20_Default_ranged_hashENS_17_Hashtable_traitsILb0ELb0ELb1EEEEC2Ev
FNDA:86,_ZNSt8__detail15_Hashtable_baseIjSt4pairIKjPN10ThreadPool10AsyncQueueEENS_10_Select1stESt8equal_toIjESt4hashIjENS_18_Mod_range_hashingENS_20_Default_ranged_hashENS_17_Hashtable_traitsILb0ELb0ELb1EEEEC2Ev
FN:1733,_ZNKSt8__detail15_Hashtable_baseIjSt4pairIKjPN10ThreadPool10AsyncQueueEENS_10_Select1stESt8equal_toIjESt4hashIjENS_18_Mod_range_hashingENS_20_Default_ranged_hashENS_17_Hashtable_traitsILb0ELb0ELb1EEEE13_M_key_equalsERS2_RKNS_16_Hash_node_valueIS6_Lb0EEE
FNDA:160538,_ZNKSt8__detail15_Hashtable_baseIjSt4pairIKjPN10ThreadPool10AsyncQueueEENS_10_Select1stESt8equal_toIjESt4hashIjENS_18_Mod_range_hashingENS_20_Default_ranged_hashENS_17_Hashtable_traitsILb0ELb0ELb1EEEE13_M_key_equalsERS2_RKNS_16_Hash_node_valueIS6_Lb0EEE
FN:1757,_ZNKSt8__detail15_Hashtable_baseIjSt4pairIKjPN10ThreadPool10AsyncQueueEENS_10_Select1stESt8equal_toIjESt4hashIjENS_18_Mod_range_hashingENS_20_Default_ranged_hashENS_17_Hashtable_traitsILb0ELb0ELb1EEEE9_M_equalsERS2_mRKNS_16_Hash_node_valueIS6_Lb0EEE
FNDA:160538,_ZNKSt8__detail15_Hashtable_baseIjSt4pairIKjPN10ThreadPool10AsyncQueueEENS_10_Select1stESt8equal_toIjESt4hashIjENS_18_Mod_range_hashingENS_20_Default_ranged_hashENS_17_Hashtable_traitsILb0ELb0ELb1EEEE9_M_equalsERS2_mRKNS_16_Hash_node_valueIS6_Lb0EEE
FN:1785,_ZNKSt8__detail15_Hashtable_baseIjSt4pairIKjPN10ThreadPool10AsyncQueueEENS_10_Select1stESt8equal_toIjESt4hashIjENS_18_Mod_range_hashingENS_20_Default_ranged_hashENS_17_Hashtable_traitsILb0ELb0ELb1EEEE5_M_eqEv
FNDA:160538,_ZNKSt8__detail15_Hashtable_baseIjSt4pairIKjPN10ThreadPool10AsyncQueueEENS_10_Select1stESt8equal_toIjESt4hashIjENS_18_Mod_range_hashingENS_20_Default_ranged_hashENS_17_Hashtable_traitsILb0ELb0ELb1EEEE5_M_eqEv
FN:1968,_ZNSt8__detail16_Hashtable_allocISaINS_10_Hash_nodeISt4pairIKjPN10ThreadPool10AsyncQueueEELb0EEEEEC2Ev
FNDA:86,_ZNSt8__detail16_Hashtable_allocISaINS_10_Hash_nodeISt4pairIKjPN10ThreadPool10AsyncQueueEELb0EEEEEC2Ev
FN:1978,_ZNSt8__detail16_Hashtable_allocISaINS_10_Hash_nodeISt4pairIKjPN10ThreadPool10AsyncQueueEELb0EEEEE17_M_node_allocatorEv
FNDA:728,_ZNSt8__detail16_Hashtable_allocISaINS_10_Hash_nodeISt4pairIKjPN10ThreadPool10AsyncQueueEELb0EEEEE17_M_node_allocatorEv
FN:2015,_ZNSt8__detail16_Hashtable_allocISaINS_10_Hash_nodeISt4pairIKjPN10ThreadPool10AsyncQueueEELb0EEEEE16_M_allocate_nodeIJRjS6_EEEPS8_DpOT_
FNDA:184,_ZNSt8__detail16_Hashtable_allocISaINS_10_Hash_nodeISt4pairIKjPN10ThreadPool10AsyncQueueEELb0EEEEE16_M_allocate_nodeIJRjS6_EEEPS8_DpOT_
FN:2038,_ZNSt8__detail16_Hashtable_allocISaINS_10_Hash_nodeISt4pairIKjPN10ThreadPool10AsyncQueueEELb0EEEEE18_M_deallocate_nodeEPS8_
FNDA:184,_ZNSt8__detail16_Hashtable_allocISaINS_10_Hash_nodeISt4pairIKjPN10ThreadPool10AsyncQueueEELb0EEEEE18_M_deallocate_nodeEPS8_
FN:2046,_ZNSt8__detail16_Hashtable_allocISaINS_10_Hash_nodeISt4pairIKjPN10ThreadPool10AsyncQueueEELb0EEEEE22_M_deallocate_node_ptrEPS8_
FNDA:184,_ZNSt8__detail16_Hashtable_allocISaINS_10_Hash_nodeISt4pairIKjPN10ThreadPool10AsyncQueueEELb0EEEEE22_M_deallocate_node_ptrEPS8_
FN:2056,_ZNSt8__detail16_Hashtable_allocISaINS_10_Hash_nodeISt4pairIKjPN10ThreadPool10AsyncQueueEELb0EEEEE19_M_deallocate_nodesEPS8_
FNDA:86,_ZNSt8__detail16_Hashtable_allocISaINS_10_Hash_nodeISt4pairIKjPN10ThreadPool10AsyncQueueEELb0EEEEE19_M_deallocate_nodesEPS8_
FN:2068,_ZNSt8__detail16_Hashtable_allocISaINS_10_Hash_nodeISt4pairIKjPN10ThreadPool10AsyncQueueEELb0EEEEE19_M_allocate_bucketsEm
FNDA:88,_ZNSt8__detail16_Hashtable_allocISaINS_10_Hash_nodeISt4pairIKjPN10ThreadPool10AsyncQueueEELb0EEEEE19_M_allocate_bucketsEm
FN:2081,_ZNSt8__detail16_Hashtable_allocISaINS_10_Hash_nodeISt4pairIKjPN10ThreadPool10AsyncQueueEELb0EEEEE21_M_deallocate_bucketsEPPNS_15_Hash_node_baseEm
FNDA:88,_ZNSt8__detail16_Hashtable_allocISaINS_10_Hash_nodeISt4pairIKjPN10ThreadPool10AsyncQueueEELb0EEEEE21_M_deallocate_bucketsEPPNS_15_Hash_node_baseEm
DA:112,184
DA:113,184
DA:112,160708
DA:113,160708
DA:303,161270
DA:304,161270
DA:319,302
DA:339,2384459
DA:344,160708
DA:349,968698
DA:354,160708
DA:386,1827878
DA:387,1827878
DA:398,86
DA:399,1792272
DA:400,1792272
DA:403,1827476
DA:404,1827476
DA:407,1031710
DA:409,1031710
DA:413,2055779
DA:415,2055779
DA:439,86
DA:442,1792272
DA:443,1792272
DA:446,968514
DA:447,1937028
DA:450,1415393
DA:451,2830786
DA:454,1827476
DA:456,1827476
DA:457,1827476
DA:532,161276
DA:534,161276
DA:550,108
DA:551,108
DA:577,194
DA:578,194
DA:585,0
DA:586,0
DA:730,194
DA:731,194
DA:732,194
DA:733,194
DA:736,194
DA:738,194
DA:739,0
DA:740,194
DA:810,160222
DA:812,160222
DA:813,160222
DA:814,4
DA:815,320436
DA:1243,86
DA:1243,86
DA:1243,86
DA:1250,161170
DA:1250,160538
DA:1251,728
DA:1326,86
DA:1331,161170
DA:1335,161170
DA:1356,161088
DA:1357,161088
DA:1360,170
DA:1366,510
DA:1367,170
DA:1378,184
DA:1379,184
DA:1400,161170
DA:1708,160538
DA:1709,160538
DA:1726,86
DA:1733,160538
DA:1740,321076
DA:1757,160538
DA:1759,160538
DA:1785,160538
DA:1968,86
DA:1978,728
DA:1979,728
DA:2015,184
DA:2018,184
DA:2019,184
DA:2020,184
DA:2023,184
DA:2024,368
DA:2026,184
DA:2038,184
DA:2040,368
DA:2041,184
DA:2042,184
DA:2046,184
DA:2049,184
DA:2050,184
DA:2051,184
DA:2052,184
DA:2056,86
DA:2058,222
DA:2060,136
DA:2061,136
DA:2062,136
DA:2064,86
DA:2068,88
DA:2071,88
DA:2073,88
DA:2074,88
DA:2075,88
DA:2076,176
DA:2081,88
DA:2086,88
DA:2087,88
DA:2089,88
end_of_record
SF:/usr/local/include/c++/14.2.0/bits/stl_function.h
FN:374,_ZNKSt8equal_toIjEclERKjS2_
FNDA:160538,_ZNKSt8equal_toIjEclERKjS2_
DA:374,160538
DA:375,160538
end_of_record
SF:/usr/local/include/c++/14.2.0/bits/stl_queue.h
FN:166,_ZNSt5queueIP4TaskSt5dequeIS1_SaIS1_EEEC2IS4_vEEv
FNDA:184,_ZNSt5queueIP4TaskSt5dequeIS1_SaIS1_EEEC2IS4_vEEv
FN:216,_ZNKSt5queueIP4TaskSt5dequeIS1_SaIS1_EEE5emptyEv
FNDA:1999846,_ZNKSt5queueIP4TaskSt5dequeIS1_SaIS1_EEE5emptyEv
FN:231,_ZNSt5queueIP4TaskSt5dequeIS1_SaIS1_EEE5frontEv
FNDA:80110,_ZNSt5queueIP4TaskSt5dequeIS1_SaIS1_EEE5frontEv
FN:283,_ZNSt5queueIP4TaskSt5dequeIS1_SaIS1_EEE4pushERKS1_
FNDA:80110,_ZNSt5queueIP4TaskSt5dequeIS1_SaIS1_EEE4pushERKS1_
FN:316,_ZNSt5queueIP4TaskSt5dequeIS1_SaIS1_EEE3popEv
FNDA:80110,_ZNSt5queueIP4TaskSt5dequeIS1_SaIS1_EEE3popEv
DA:166,184
DA:167,184
DA:216,1999846
DA:217,1999846
DA:231,80110
DA:234,80110
DA:283,80110
DA:284,80110
DA:316,80110
DA:319,80110
DA:320,80110
end_of_record
SF:/usr/local/include/c++/14.2.0/bits/new_allocator.h
FN:104,_ZNSt15__new_allocatorIPNSt8__detail15_Hash_node_baseEED2Ev
FNDA:180,_ZNSt15__new_allocatorIPNSt8__detail15_Hash_node_baseEED2Ev
FN:104,_ZNSt15__new_allocatorIPP4TaskED2Ev
FNDA:400,_ZNSt15__new_allocatorIPP4TaskED2Ev
FN:104,_ZNSt15__new_allocatorIP4TaskED2Ev
FNDA:184,_ZNSt15__new_allocatorIP4TaskED2Ev
FN:104,_ZNSt15__new_allocatorINSt8__detail10_Hash_nodeISt4pairIKjPN10ThreadPool10AsyncQueueEELb0EEEED2Ev
FNDA:86,_ZNSt15__new_allocatorINSt8__detail10_Hash_nodeISt4pairIKjPN10ThreadPool10AsyncQueueEELb0EEEED2Ev
FN:126,_ZNSt15__new_allocatorIPNSt8__detail15_Hash_node_baseEE8allocateEmPKv
FNDA:90,_ZNSt15__new_allocatorIPNSt8__detail15_Hash_node_baseEE8allocateEmPKv
FN:126,_ZNSt15__new_allocatorINSt8__detail10_Hash_nodeISt4pairIKjPN10ThreadPool10AsyncQueueEELb0EEEE8allocateEmPKv
FNDA:184,_ZNSt15__new_allocatorINSt8__detail10_Hash_nodeISt4pairIKjPN10ThreadPool10AsyncQueueEELb0EEEE8allocateEmPKv
FN:126,_ZNSt15__new_allocatorIP4TaskE8allocateEmPKv
FNDA:1408,_ZNSt15__new_allocatorIP4TaskE8allocateEmPKv
FN:126,_ZNSt15__new_allocatorIPP4TaskE8allocateEmPKv
FNDA:200,_ZNSt15__new_allocatorIPP4TaskE8allocateEmPKv
FN:156,_ZNSt15__new_allocatorINSt8__detail10_Hash_nodeISt4pairIKjPN10ThreadPool10AsyncQueueEELb0EEEE10deallocateEPS8_m
FNDA:184,_ZNSt15__new_allocatorINSt8__detail10_Hash_nodeISt4pairIKjPN10ThreadPool10AsyncQueueEELb0EEEE10deallocateEPS8_m
FN:156,_ZNSt15__new_allocatorIPNSt8__detail15_Hash_node_baseEE10deallocateEPS2_m
FNDA:90,_ZNSt15__new_allocatorIPNSt8__detail15_Hash_node_baseEE10deallocateEPS2_m
FN:156,_ZNSt15__new_allocatorIP4TaskE10deallocateEPS1_m
FNDA:1408,_ZNSt15__new_allocatorIP4TaskE10deallocateEPS1_m
FN:156,_ZNSt15__new_allocatorIPP4TaskE10deallocateEPS2_m
FNDA:200,_ZNSt15__new_allocatorIPP4TaskE10deallocateEPS2_m
DA:88,846
DA:104,180
DA:104,400
DA:104,184
DA:104,86
DA:126,90
DA:134,90
DA:138,0
DA:139,0
DA:140,0
DA:151,90
DA:126,184
DA:134,184
DA:138,0
DA:139,0
DA:140,0
DA:151,184
DA:126,1408
DA:134,1408
DA:138,0
DA:139,0
DA:140,0
DA:151,1408
DA:126,200
DA:134,200
DA:138,0
DA:139,0
DA:140,0
DA:151,200
DA:156,184
DA:172,184
DA:156,90
DA:172,90
DA:156,1408
DA:172,1408
DA:156,200
DA:172,200
DA:183,1224
DA:191,80294
DA:198,80294
DA:233,3106
end_of_record
SF:/usr/local/include/c++/14.2.0/bits/hashtable.h
FN:310,_ZNSt10_HashtableIjSt4pairIKjPN10ThreadPool10AsyncQueueEESaIS5_ENSt8__detail10_Select1stESt8equal_toIjESt4hashIjENS7_18_Mod_range_hashingENS7_20_Default_ranged_hashENS7_20_Prime_rehash_policyENS7_17_Hashtable_traitsILb0ELb0ELb1EEEE12_Scoped_nodeC2IJRjS4_EEEPNS7_16_Hashtable_allocISaINS7_10_Hash_nodeIS5_Lb0EEEEEEDpOT_
FNDA:184,_ZNSt10_HashtableIjSt4pairIKjPN10ThreadPool10AsyncQueueEESaIS5_ENSt8__detail10_Select1stESt8equal_toIjESt4hashIjENS7_18_Mod_range_hashingENS7_20_Default_ranged_hashENS7_20_Prime_rehash_policyENS7_17_Hashtable_traitsILb0ELb0ELb1EEEE12_Scoped_nodeC2IJRjS4_EEEPNS7_16_Hashtable_allocISaINS7_10_Hash_nodeIS5_Lb0EEEEEEDpOT_
FN:316,_ZNSt10_HashtableIjSt4pairIKjPN10ThreadPool10AsyncQueueEESaIS5_ENSt8__detail10_Select1stESt8equal_toIjESt4hashIjENS7_18_Mod_range_hashingENS7_20_Default_ranged_hashENS7_20_Prime_rehash_policyENS7_17_Hashtable_traitsILb0ELb0ELb1EEEE12_Scoped_nodeD2Ev
FNDA:184,_ZNSt10_HashtableIjSt4pairIKjPN10ThreadPool10AsyncQueueEESaIS5_ENSt8__detail10_Select1stESt8equal_toIjESt4hashIjENS7_18_Mod_range_hashingENS7_20_Default_ranged_hashENS7_20_Prime_rehash_policyENS7_17_Hashtable_traitsILb0ELb0ELb1EEEE12_Scoped_nodeD2Ev
FN:421,_ZNKSt10_HashtableIjSt4pairIKjPN10ThreadPool10AsyncQueueEESaIS5_ENSt8__detail10_Select1stESt8equal_toIjESt4hashIjENS7_18_Mod_range_hashingENS7_20_Default_ranged_hashENS7_20_Prime_rehash_policyENS7_17_Hashtable_traitsILb0ELb0ELb1EEEE21_M_uses_single_bucketEPPNS7_15_Hash_node_baseE
FNDA:174,_ZNKSt10_HashtableIjSt4pairIKjPN10ThreadPool10AsyncQueueEESaIS5_ENSt8__detail10_Select1stESt8equal_toIjESt4hashIjENS7_18_Mod_range_hashingENS7_20_Default_ranged_hashENS7_20_Prime_rehash_policyENS7_17_Hashtable_traitsILb0ELb0ELb1EEEE21_M_uses_single_bucketEPPNS7_15_Hash_node_baseE
FN:429,_ZNSt10_HashtableIjSt4pairIKjPN10ThreadPool10AsyncQueueEESaIS5_ENSt8__detail10_Select1stESt8equal_toIjESt4hashIjENS7_18_Mod_range_hashingENS7_20_Default_ranged_hashENS7_20_Prime_rehash_policyENS7_17_Hashtable_traitsILb0ELb0ELb1EEEE22__small_size_thresholdEv
FNDA:161270,_ZNSt10_HashtableIjSt4pairIKjPN10ThreadPool10AsyncQueueEESaIS5_ENSt8__detail10_Select1stESt8equal_toIjESt4hashIjENS7_18_Mod_range_hashingENS7_20_Default_ranged_hashENS7_20_Prime_rehash_policyENS7_17_Hashtable_traitsILb0ELb0ELb1EEEE22__small_size_thresholdEv
FN:439,_ZNSt10_HashtableIjSt4pairIKjPN10ThreadPool10AsyncQueueEESaIS5_ENSt8__detail10_Select1stESt8equal_toIjESt4hashIjENS7_18_Mod_range_hashingENS7_20_Default_ranged_hashENS7_20_Prime_rehash_policyENS7_17_Hashtable_traitsILb0ELb0ELb1EEEE19_M_allocate_bucketsEm
FNDA:88,_ZNSt10_HashtableIjSt4pairIKjPN10ThreadPool10AsyncQueueEESaIS5_ENSt8__detail10_Select1stESt8equal_toIjESt4hashIjENS7_18_Mod_range_hashingENS7_20_Default_ranged_hashENS7_20_Prime_rehash_policyENS7_17_Hashtable_traitsILb0ELb0ELb1EEEE19_M_allocate_bucketsEm
FN:451,_ZNSt10_HashtableIjSt4pairIKjPN10ThreadPool10AsyncQueueEESaIS5_ENSt8__detail10_Select1stESt8equal_toIjESt4hashIjENS7_18_Mod_range_hashingENS7_20_Default_ranged_hashENS7_20_Prime_rehash_policyENS7_17_Hashtable_traitsILb0ELb0ELb1EEEE21_M_deallocate_bucketsEPPNS7_15_Hash_node_baseEm
FNDA:174,_ZNSt10_HashtableIjSt4pairIKjPN10ThreadPool10AsyncQueueEESaIS5_ENSt8__detail10_Select1stESt8equal_toIjESt4hashIjENS7_18_Mod_range_hashingENS7_20_Default_ranged_hashENS7_20_Prime_rehash_policyENS7_17_Hashtable_traitsILb0ELb0ELb1EEEE21_M_deallocate_bucketsEPPNS7_15_Hash_node_baseEm
FN:460,_ZNSt10_HashtableIjSt4pairIKjPN10ThreadPool10AsyncQueueEESaIS5_ENSt8__detail10_Select1stESt8equal_toIjESt4hashIjENS7_18_Mod_range_hashingENS7_20_Default_ranged_hashENS7_20_Prime_rehash_policyENS7_17_Hashtable_traitsILb0ELb0ELb1EEEE21_M_deallocate_bucketsEv
FNDA:174,_ZNSt10_HashtableIjSt4pairIKjPN10ThreadPool10AsyncQueueEESaIS5_ENSt8__detail10_Select1stESt8equal_toIjESt4hashIjENS7_18_Mod_range_hashingENS7_20_Default_ranged_hashENS7_20_Prime_rehash_policyENS7_17_Hashtable_traitsILb0ELb0ELb1EEEE21_M_deallocate_bucketsEv
FN:473,_ZNKSt10_HashtableIjSt4pairIKjPN10ThreadPool10AsyncQueueEESaIS5_ENSt8__detail10_Select1stESt8equal_toIjESt4hashIjENS7_18_Mod_range_hashingENS7_20_Default_ranged_hashENS7_20_Prime_rehash_policyENS7_17_Hashtable_traitsILb0ELb0ELb1EEEE8_M_beginEv
FNDA:371517,_ZNKSt10_HashtableIjSt4pairIKjPN10ThreadPool10AsyncQueueEESaIS5_ENSt8__detail10_Select1stESt8equal_toIjESt4hashIjENS7_18_Mod_range_hashingENS7_20_Default_ranged_hashENS7_20_Prime_rehash_policyENS7_17_Hashtable_traitsILb0ELb0ELb1EEEE8_M_beginEv
FN:539,_ZNSt10_HashtableIjSt4pairIKjPN10ThreadPool10AsyncQueueEESaIS5_ENSt8__detail10_Select1stESt8equal_toIjESt4hashIjENS7_18_Mod_range_hashingENS7_20_Default_ranged_hashENS7_20_Prime_rehash_policyENS7_17_Hashtable_traitsILb0ELb0ELb1EEEEC2Ev
FNDA:86,_ZNSt10_HashtableIjSt4pairIKjPN10ThreadPool10AsyncQueueEESaIS5_ENSt8__detail10_Select1stESt8equal_toIjESt4hashIjENS7_18_Mod_range_hashingENS7_20_Default_ranged_hashENS7_20_Prime_rehash_policyENS7_17_Hashtable_traitsILb0ELb0ELb1EEEEC2Ev
FN:632,_ZNSt10_HashtableIjSt4pairIKjPN10ThreadPool10AsyncQueueEESaIS5_ENSt8__detail10_Select1stESt8equal_toIjESt4hashIjENS7_18_Mod_range_hashingENS7_20_Default_ranged_hashENS7_20_Prime_rehash_policyENS7_17_Hashtable_traitsILb0ELb0ELb1EEEE5beginEv
FNDA:371171,_ZNSt10_HashtableIjSt4pairIKjPN10ThreadPool10AsyncQueueEESaIS5_ENSt8__detail10_Select1stESt8equal_toIjESt4hashIjENS7_18_Mod_range_hashingENS7_20_Default_ranged_hashENS7_20_Prime_rehash_policyENS7_17_Hashtable_traitsILb0ELb0ELb1EEEE5beginEv
FN:640,_ZNSt10_HashtableIjSt4pairIKjPN10ThreadPool10AsyncQueueEESaIS5_ENSt8__detail10_Select1stESt8equal_toIjESt4hashIjENS7_18_Mod_range_hashingENS7_20_Default_ranged_hashENS7_20_Prime_rehash_policyENS7_17_Hashtable_traitsILb0ELb0ELb1EEEE3endEv
FNDA:1260101,_ZNSt10_HashtableIjSt4pairIKjPN10ThreadPool10AsyncQueueEESaIS5_ENSt8__detail10_Select1stESt8equal_toIjESt4hashIjENS7_18_Mod_range_hashingENS7_20_Default_ranged_hashENS7_20_Prime_rehash_policyENS7_17_Hashtable_traitsILb0ELb0ELb1EEEE3endEv
FN:656,_ZNKSt10_HashtableIjSt4pairIKjPN10ThreadPool10AsyncQueueEESaIS5_ENSt8__detail10_Select1stESt8equal_toIjESt4hashIjENS7_18_Mod_range_hashingENS7_20_Default_ranged_hashENS7_20_Prime_rehash_policyENS7_17_Hashtable_traitsILb0ELb0ELb1EEEE4sizeEv
FNDA:161086,_ZNKSt10_HashtableIjSt4pairIKjPN10ThreadPool10AsyncQueueEESaIS5_ENSt8__detail10_Select1stESt8equal_toIjESt4hashIjENS7_18_Mod_range_hashingENS7_20_Default_ranged_hashENS7_20_Prime_rehash_policyENS7_17_Hashtable_traitsILb0ELb0ELb1EEEE4sizeEv
FN:799,_ZNKSt10_HashtableIjSt4pairIKjPN10ThreadPool10AsyncQueueEESaIS5_ENSt8__detail10_Select1stESt8equal_toIjESt4hashIjENS7_18_Mod_range_hashingENS7_20_Default_ranged_hashENS7_20_Prime_rehash_policyENS7_17_Hashtable_traitsILb0ELb0ELb1EEEE15_M_bucket_indexERKNS7_16_Hash_node_valueIS5_Lb0EEE
FNDA:144,_ZNKSt10_HashtableIjSt4pairIKjPN10ThreadPool10AsyncQueueEESaIS5_ENSt8__detail10_Select1stESt8equal_toIjESt4hashIjENS7_18_Mod_range_hashingENS7_20_Default_ranged_hashENS7_20_Prime_rehash_policyENS7_17_Hashtable_traitsILb0ELb0ELb1EEEE15_M_bucket_indexERKNS7_16_Hash_node_valueIS5_Lb0EEE
FN:803,_ZNKSt10_HashtableIjSt4pairIKjPN10ThreadPool10AsyncQueueEESaIS5_ENSt8__detail10_Select1stESt8equal_toIjESt4hashIjENS7_18_Mod_range_hashingENS7_20_Default_ranged_hashENS7_20_Prime_rehash_policyENS7_17_Hashtable_traitsILb0ELb0ELb1EEEE15_M_bucket_indexEm
FNDA:161088,_ZNKSt10_HashtableIjSt4pairIKjPN10ThreadPool10AsyncQueueEESaIS5_ENSt8__detail10_Select1stESt8equal_toIjESt4hashIjENS7_18_Mod_range_hashingENS7_20_Default_ranged_hashENS7_20_Prime_rehash_policyENS7_17_Hashtable_traitsILb0ELb0ELb1EEEE15_M_bucket_indexEm
FN:819,_ZNKSt10_HashtableIjSt4pairIKjPN10ThreadPool10AsyncQueueEESaIS5_ENSt8__detail10_Select1stESt8equal_toIjESt4hashIjENS7_18_Mod_range_hashingENS7_20_Default_ranged_hashENS7_20_Prime_rehash_policyENS7_17_Hashtable_traitsILb0ELb0ELb1EEEE12_M_find_nodeEmRS1_m
FNDA:160866,_ZNKSt10_HashtableIjSt4pairIKjPN10ThreadPool10AsyncQueueEESaIS5_ENSt8__detail10_Select1stESt8equal_toIjESt4hashIjENS7_18_Mod_range_hashingENS7_20_Default_ranged_hashENS7_20_Prime_rehash_policyENS7_17_Hashtable_traitsILb0ELb0ELb1EEEE12_M_find_nodeEmRS1_m
FN:841,_ZNSt10_HashtableIjSt4pairIKjPN10ThreadPool10AsyncQueueEESaIS5_ENSt8__detail10_Select1stESt8equal_toIjESt4hashIjENS7_18_Mod_range_hashingENS7_20_Default_ranged_hashENS7_20_Prime_rehash_policyENS7_17_Hashtable_traitsILb0ELb0ELb1EEEE22_M_insert_bucket_beginEmPNS7_10_Hash_nodeIS5_Lb0EEE
FNDA:184,_ZNSt10_HashtableIjSt4pairIKjPN10ThreadPool10AsyncQueueEESaIS5_ENSt8__detail10_Select1stESt8equal_toIjESt4hashIjENS7_18_Mod_range_hashingENS7_20_Default_ranged_hashENS7_20_Prime_rehash_policyENS7_17_Hashtable_traitsILb0ELb0ELb1EEEE22_M_insert_bucket_beginEmPNS7_10_Hash_nodeIS5_Lb0EEE
FN:869,_ZNSt10_HashtableIjSt4pairIKjPN10ThreadPool10AsyncQueueEESaIS5_ENSt8__detail10_Select1stESt8equal_toIjESt4hashIjENS7_18_Mod_range_hashingENS7_20_Default_ranged_hashENS7_20_Prime_rehash_policyENS7_17_Hashtable_traitsILb0ELb0ELb1EEEE22_M_remove_bucket_beginEmPNS7_10_Hash_nodeIS5_Lb0EEEm
FNDA:48,_ZNSt10_HashtableIjSt4pairIKjPN10ThreadPool10AsyncQueueEESaIS5_ENSt8__detail10_Select1stESt8equal_toIjESt4hashIjENS7_18_Mod_range_hashingENS7_20_Default_ranged_hashENS7_20_Prime_rehash_policyENS7_17_Hashtable_traitsILb0ELb0ELb1EEEE22_M_remove_bucket_beginEmPNS7_10_Hash_nodeIS5_Lb0EEEm
FN:1000,_ZNSt10_HashtableIjSt4pairIKjPN10ThreadPool10AsyncQueueEESaIS5_ENSt8__detail10_Select1stESt8equal_toIjESt4hashIjENS7_18_Mod_range_hashingENS7_20_Default_ranged_hashENS7_20_Prime_rehash_policyENS7_17_Hashtable_traitsILb0ELb0ELb1EEEE7emplaceIJRjS4_EEES0_INS7_14_Node_iteratorIS5_Lb0ELb0EEEbEDpOT_
FNDA:184,_ZNSt10_HashtableIjSt4pairIKjPN10ThreadPool10AsyncQueueEESaIS5_ENSt8__detail10_Select1stESt8equal_toIjESt4hashIjENS7_18_Mod_range_hashingENS7_20_Default_ranged_hashENS7_20_Prime_rehash_policyENS7_17_Hashtable_traitsILb0ELb0ELb1EEEE7emplaceIJRjS4_EEES0_INS7_14_Node_iteratorIS5_Lb0ELb0EEEbEDpOT_
FN:1023,_ZNSt10_HashtableIjSt4pairIKjPN10ThreadPool10AsyncQueueEESaIS5_ENSt8__detail10_Select1stESt8equal_toIjESt4hashIjENS7_18_Mod_range_hashingENS7_20_Default_ranged_hashENS7_20_Prime_rehash_policyENS7_17_Hashtable_traitsILb0ELb0ELb1EEEE5eraseERS1_
FNDA:48,_ZNSt10_HashtableIjSt4pairIKjPN10ThreadPool10AsyncQueueEESaIS5_ENSt8__detail10_Select1stESt8equal_toIjESt4hashIjENS7_18_Mod_range_hashingENS7_20_Default_ranged_hashENS7_20_Prime_rehash_policyENS7_17_Hashtable_traitsILb0ELb0ELb1EEEE5eraseERS1_
FN:1654,_ZNSt10_HashtableIjSt4pairIKjPN10ThreadPool10AsyncQueueEESaIS5_ENSt8__detail10_Select1stESt8equal_toIjESt4hashIjENS7_18_Mod_range_hashingENS7_20_Default_ranged_hashENS7_20_Prime_rehash_policyENS7_17_Hashtable_traitsILb0ELb0ELb1EEEED2Ev
FNDA:86,_ZNSt10_HashtableIjSt4pairIKjPN10ThreadPool10AsyncQueueEESaIS5_ENSt8__detail10_Select1stESt8equal_toIjESt4hashIjENS7_18_Mod_range_hashingENS7_20_Default_ranged_hashENS7_20_Prime_rehash_policyENS7_17_Hashtable_traitsILb0ELb0ELb1EEEED2Ev
FN:1723,_ZNSt10_HashtableIjSt4pairIKjPN10ThreadPool10AsyncQueueEESaIS5_ENSt8__detail10_Select1stESt8equal_toIjESt4hashIjENS7_18_Mod_range_hashingENS7_20_Default_ranged_hashENS7_20_Prime_rehash_policyENS7_17_Hashtable_traitsILb0ELb0ELb1EEEE4findERS1_
FNDA:160854,_ZNSt10_HashtableIjSt4pairIKjPN10ThreadPool10AsyncQueueEESaIS5_ENSt8__detail10_Select1stESt8equal_toIjESt4hashIjENS7_18_Mod_range_hashingENS7_20_Default_ranged_hashENS7_20_Prime_rehash_policyENS7_17_Hashtable_traitsILb0ELb0ELb1EEEE4findERS1_
FN:2032,_ZNSt10_HashtableIjSt4pairIKjPN10ThreadPool10AsyncQueueEESaIS5_ENSt8__detail10_Select1stESt8equal_toIjESt4hashIjENS7_18_Mod_range_hashingENS7_20_Default_ranged_hashENS7_20_Prime_rehash_policyENS7_17_Hashtable_traitsILb0ELb0ELb1EEEE19_M_find_before_nodeERS1_
FNDA:0,_ZNSt10_HashtableIjSt4pairIKjPN10ThreadPool10AsyncQueueEESaIS5_ENSt8__detail10_Select1stESt8equal_toIjESt4hashIjENS7_18_Mod_range_hashingENS7_20_Default_ranged_hashENS7_20_Prime_rehash_policyENS7_17_Hashtable_traitsILb0ELb0ELb1EEEE19_M_find_before_nodeERS1_
FN:2061,_ZNKSt10_HashtableIjSt4pairIKjPN10ThreadPool10AsyncQueueEESaIS5_ENSt8__detail10_Select1stESt8equal_toIjESt4hashIjENS7_18_Mod_range_hashingENS7_20_Default_ranged_hashENS7_20_Prime_rehash_policyENS7_17_Hashtable_traitsILb0ELb0ELb1EEEE19_M_find_before_nodeEmRS1_m
FNDA:160914,_ZNKSt10_HashtableIjSt4pairIKjPN10ThreadPool10AsyncQueueEESaIS5_ENSt8__detail10_Select1stESt8equal_toIjESt4hashIjENS7_18_Mod_range_hashingENS7_20_Default_ranged_hashENS7_20_Prime_rehash_policyENS7_17_Hashtable_traitsILb0ELb0ELb1EEEE19_M_find_before_nodeEmRS1_m
FN:2137,_ZNSt10_HashtableIjSt4pairIKjPN10ThreadPool10AsyncQueueEESaIS5_ENSt8__detail10_Select1stESt8equal_toIjESt4hashIjENS7_18_Mod_range_hashingENS7_20_Default_ranged_hashENS7_20_Prime_rehash_policyENS7_17_Hashtable_traitsILb0ELb0ELb1EEEE10_M_emplaceIJRjS4_EEES0_INS7_14_Node_iteratorIS5_Lb0ELb0EEEbESt17integral_constantIbLb1EEDpOT_
FNDA:184,_ZNSt10_HashtableIjSt4pairIKjPN10ThreadPool10AsyncQueueEESaIS5_ENSt8__detail10_Select1stESt8equal_toIjESt4hashIjENS7_18_Mod_range_hashingENS7_20_Default_ranged_hashENS7_20_Prime_rehash_policyENS7_17_Hashtable_traitsILb0ELb0ELb1EEEE10_M_emplaceIJRjS4_EEES0_INS7_14_Node_iteratorIS5_Lb0ELb0EEEbESt17integral_constantIbLb1EEDpOT_
FN:2224,_ZNSt10_HashtableIjSt4pairIKjPN10ThreadPool10AsyncQueueEESaIS5_ENSt8__detail10_Select1stESt8equal_toIjESt4hashIjENS7_18_Mod_range_hashingENS7_20_Default_ranged_hashENS7_20_Prime_rehash_policyENS7_17_Hashtable_traitsILb0ELb0ELb1EEEE21_M_insert_unique_nodeEmmPNS7_10_Hash_nodeIS5_Lb0EEEm
FNDA:184,_ZNSt10_HashtableIjSt4pairIKjPN10ThreadPool10AsyncQueueEESaIS5_ENSt8__detail10_Select1stESt8equal_toIjESt4hashIjENS7_18_Mod_range_hashingENS7_20_Default_ranged_hashENS7_20_Prime_rehash_policyENS7_17_Hashtable_traitsILb0ELb0ELb1EEEE21_M_insert_unique_nodeEmmPNS7_10_Hash_nodeIS5_Lb0EEEm
FN:2396,_ZNSt10_HashtableIjSt4pairIKjPN10ThreadPool10AsyncQueueEESaIS5_ENSt8__detail10_Select1stESt8equal_toIjESt4hashIjENS7_18_Mod_range_hashingENS7_20_Default_ranged_hashENS7_20_Prime_rehash_policyENS7_17_Hashtable_traitsILb0ELb0ELb1EEEE8_M_eraseEmPNS7_15_Hash_node_baseEPNS7_10_Hash_nodeIS5_Lb0EEE
FNDA:48,_ZNSt10_HashtableIjSt4pairIKjPN10ThreadPool10AsyncQueueEESaIS5_ENSt8__detail10_Select1stESt8equal_toIjESt4hashIjENS7_18_Mod_range_hashingENS7_20_Default_ranged_hashENS7_20_Prime_rehash_policyENS7_17_Hashtable_traitsILb0ELb0ELb1EEEE8_M_eraseEmPNS7_15_Hash_node_baseEPNS7_10_Hash_nodeIS5_Lb0EEE
FN:2424,_ZNSt10_HashtableIjSt4pairIKjPN10ThreadPool10AsyncQueueEESaIS5_ENSt8__detail10_Select1stESt8equal_toIjESt4hashIjENS7_18_Mod_range_hashingENS7_20_Default_ranged_hashENS7_20_Prime_rehash_policyENS7_17_Hashtable_traitsILb0ELb0ELb1EEEE8_M_eraseESt17integral_constantIbLb1EERS1_
FNDA:48,_ZNSt10_HashtableIjSt4pairIKjPN10ThreadPool10AsyncQueueEESaIS5_ENSt8__detail10_Select1stESt8equal_toIjESt4hashIjENS7_18_Mod_range_hashingENS7_20_Default_ranged_hashENS7_20_Prime_rehash_policyENS7_17_Hashtable_traitsILb0ELb0ELb1EEEE8_M_eraseESt17integral_constantIbLb1EERS1_
FN:2580,_ZNSt10_HashtableIjSt4pairIKjPN10ThreadPool10AsyncQueueEESaIS5_ENSt8__detail10_Select1stESt8equal_toIjESt4hashIjENS7_18_Mod_range_hashingENS7_20_Default_ranged_hashENS7_20_Prime_rehash_policyENS7_17_Hashtable_traitsILb0ELb0ELb1EEEE5clearEv
FNDA:86,_ZNSt10_HashtableIjSt4pairIKjPN10ThreadPool10AsyncQueueEESaIS5_ENSt8__detail10_Select1stESt8equal_toIjESt4hashIjENS7_18_Mod_range_hashingENS7_20_Default_ranged_hashENS7_20_Prime_rehash_policyENS7_17_Hashtable_traitsILb0ELb0ELb1EEEE5clearEv
FN:2619,_ZNSt10_HashtableIjSt4pairIKjPN10ThreadPool10AsyncQueueEESaIS5_ENSt8__detail10_Select1stESt8equal_toIjESt4hashIjENS7_18_Mod_range_hashingENS7_20_Default_ranged_hashENS7_20_Prime_rehash_policyENS7_17_Hashtable_traitsILb0ELb0ELb1EEEE9_M_rehashEmSt17integral_constantIbLb1EE
FNDA:88,_ZNSt10_HashtableIjSt4pairIKjPN10ThreadPool10AsyncQueueEESaIS5_ENSt8__detail10_Select1stESt8equal_toIjESt4hashIjENS7_18_Mod_range_hashingENS7_20_Default_ranged_hashENS7_20_Prime_rehash_policyENS7_17_Hashtable_traitsILb0ELb0ELb1EEEE9_M_rehashEmSt17integral_constantIbLb1EE
DA:310,184
DA:311,184
DA:312,184
DA:313,184
DA:316,184
DA:421,174
DA:422,174
DA:429,161270
DA:432,161270
DA:439,88
DA:441,88
DA:443,0
DA:444,0
DA:447,88
DA:451,174
DA:453,174
DA:454,86
DA:456,88
DA:460,174
DA:461,174
DA:473,371517
DA:474,371517
DA:539,86
DA:632,371171
DA:633,371171
DA:640,1260101
DA:641,1260101
DA:656,161086
DA:657,161086
DA:799,144
DA:800,144
DA:803,161088
DA:804,161088
DA:819,160866
DA:822,160866
DA:823,160866
DA:824,160468
DA:825,398
DA:841,184
DA:843,184
DA:847,2
DA:848,2
DA:855,182
DA:856,182
DA:858,182
DA:861,96
DA:863,182
DA:865,184
DA:869,48
DA:872,48
DA:873,0
DA:874,48
DA:876,46
DA:877,46
DA:879,48
DA:1000,184
DA:1001,184
DA:1023,48
DA:1024,48
DA:1654,86
DA:1667,86
DA:1668,86
DA:1669,86
DA:1723,160854
DA:1728,160854
DA:1730,86
DA:1731,0
DA:1732,0
DA:1733,86
DA:1736,160768
DA:1737,160768
DA:1738,160768
DA:2032,0
DA:2037,0
DA:2038,0
DA:2039,0
DA:2041,0
DA:2042,0
DA:2043,0
DA:2045,0
DA:2046,0
DA:2048,0
DA:2051,0
DA:2061,160914
DA:2067,160914
DA:2068,160914
DA:2069,376
DA:2071,160538
DA:2072,0
DA:2074,160538
DA:2075,160516
DA:2077,22
DA:2078,22
DA:2079,0
DA:2082,22
DA:2137,184
DA:2143,184
DA:2144,368
DA:2145,184
DA:2146,184
DA:2148,86
DA:2149,0
DA:2151,0
DA:2154,184
DA:2155,184
DA:2156,184
DA:2157,98
DA:2159,0
DA:2162,184
DA:2163,184
DA:2164,184
DA:2165,184
DA:2224,184
DA:2230,184
DA:2232,184
DA:2235,184
DA:2237,88
DA:2238,88
DA:2241,184
DA:2242,184
DA:2245,184
DA:2246,184
DA:2247,368
DA:2248,184
DA:2396,48
DA:2401,48
DA:2402,48
DA:2403,48
DA:2404,0
DA:2406,0
DA:2407,0
DA:2408,0
DA:2411,48
DA:2412,48
DA:2413,48
DA:2414,48
DA:2416,48
DA:2424,48
DA:2432,48
DA:2434,0
DA:2435,0
DA:2436,0
DA:2439,0
DA:2440,0
DA:2444,48
DA:2445,48
DA:2448,48
DA:2449,48
DA:2450,0
DA:2453,48
DA:2456,48
DA:2457,48
DA:2580,86
DA:2584,86
DA:2585,86
DA:2586,86
DA:2587,86
DA:2588,86
DA:2589,86
DA:2619,88
DA:2623,88
DA:2624,88
DA:2625,88
DA:2626,88
DA:2627,114
DA:2629,26
DA:2631,26
DA:2632,26
DA:2634,26
DA:2635,26
DA:2636,26
DA:2637,26
DA:2638,24
DA:2639,26
DA:2643,0
DA:2644,0
DA:2647,26
DA:2650,88
DA:2651,88
DA:2652,88
DA:2653,88
end_of_record
SF:/usr/local/include/c++/14.2.0/stdexcept
FN:206,_ZNSt12out_of_rangeC2ERKS_
FNDA:202,_ZNSt12out_of_rangeC2ERKS_
DA:206,202
end_of_record
SF:/usr/local/include/c++/14.2.0/new
FN:179,_ZnwmPv
FNDA:0,_ZnwmPv
DA:179,0
DA:180,0
end_of_record
SF:/usr/local/include/c++/14.2.0/ext/aligned_buffer.h
FN:104,_ZN9__gnu_cxx16__aligned_bufferISt4pairIKjPN10ThreadPool10AsyncQueueEEE7_M_addrEv
FNDA:2384459,_ZN9__gnu_cxx16__aligned_bufferISt4pairIKjPN10ThreadPool10AsyncQueueEEE7_M_addrEv
FN:110,_ZNK9__gnu_cxx16__aligned_bufferISt4pairIKjPN10ThreadPool10AsyncQueueEEE7_M_addrEv
FNDA:160708,_ZNK9__gnu_cxx16__aligned_bufferISt4pairIKjPN10ThreadPool10AsyncQueueEEE7_M_addrEv
FN:116,_ZN9__gnu_cxx16__aligned_bufferISt4pairIKjPN10ThreadPool10AsyncQueueEEE6_M_ptrEv
FNDA:2384459,_ZN9__gnu_cxx16__aligned_bufferISt4pairIKjPN10ThreadPool10AsyncQueueEEE6_M_ptrEv
FN:120,_ZNK9__gnu_cxx16__aligned_bufferISt4pairIKjPN10ThreadPool10AsyncQueueEEE6_M_ptrEv
FNDA:160708,_ZNK9__gnu_cxx16__aligned_bufferISt4pairIKjPN10ThreadPool10AsyncQueueEEE6_M_ptrEv
DA:104,2384459
DA:106,2384459
DA:110,160708
DA:112,160708
DA:116,2384459
DA:117,2384459
DA:120,160708
DA:121,160708
end_of_record
SF:/usr/local/include/c++/14.2.0/bits/stl_algobase.h
FN:233,_ZSt3minImERKT_S2_S2_
FNDA:0,_ZSt3minImERKT_S2_S2_
FN:257,_ZSt3maxImERKT_S2_S2_
FNDA:0,_ZSt3maxImERKT_S2_S2_
FN:316,_ZSt12__niter_baseIPPP4TaskET_S4_
FNDA:462,_ZSt12__niter_baseIPPP4TaskET_S4_
FN:353,_ZSt12__niter_wrapIPPP4TaskET_RKS4_S4_
FNDA:154,_ZSt12__niter_wrapIPPP4TaskET_RKS4_S4_
FN:412,_ZNSt11__copy_moveILb0ELb0ESt26random_access_iterator_tagE12__assign_oneIPP4TaskS5_EEvPT_PT0_
FNDA:121,_ZNSt11__copy_moveILb0ELb0ESt26random_access_iterator_tagE12__assign_oneIPP4TaskS5_EEvPT_PT0_
FN:448,_ZNSt11__copy_moveILb0ELb1ESt26random_access_iterator_tagE8__copy_mIPP4TaskS5_EEPT0_PT_S9_S7_
FNDA:154,_ZNSt11__copy_moveILb0ELb1ESt26random_access_iterator_tagE8__copy_mIPP4TaskS5_EEPT0_PT_S9_S7_
FN:512,_ZSt14__copy_move_a2ILb0EPPP4TaskS3_ET1_T0_S5_S4_
FNDA:154,_ZSt14__copy_move_a2ILb0EPPP4TaskS3_ET1_T0_S5_S4_
FN:547,_ZSt14__copy_move_a1ILb0EPPP4TaskS3_ET1_T0_S5_S4_
FNDA:154,_ZSt14__copy_move_a1ILb0EPPP4TaskS3_ET1_T0_S5_S4_
FN:553,_ZSt13__copy_move_aILb0EPPP4TaskS3_ET1_T0_S5_S4_
FNDA:154,_ZSt13__copy_move_aILb0EPPP4TaskS3_ET1_T0_S5_S4_
FN:642,_ZSt4copyIPPP4TaskS3_ET0_T_S5_S4_
FNDA:154,_ZSt4copyIPPP4TaskS3_ET0_T_S5_S4_
FN:762,_ZNSt20__copy_move_backwardILb0ELb1ESt26random_access_iterator_tagE13__copy_move_bIPP4TaskS5_EEPT0_PT_S9_S7_
FNDA:0,_ZNSt20__copy_move_backwardILb0ELb1ESt26random_access_iterator_tagE13__copy_move_bIPP4TaskS5_EEPT0_PT_S9_S7_
FN:777,_ZSt23__copy_move_backward_a2ILb0EPPP4TaskS3_ET1_T0_S5_S4_
FNDA:0,_ZSt23__copy_move_backward_a2ILb0EPPP4TaskS3_ET1_T0_S5_S4_
FN:795,_ZSt23__copy_move_backward_a1ILb0EPPP4TaskS3_ET1_T0_S5_S4_
FNDA:0,_ZSt23__copy_move_backward_a1ILb0EPPP4TaskS3_ET1_T0_S5_S4_
FN:823,_ZSt22__copy_move_backward_aILb0EPPP4TaskS3_ET1_T0_S5_S4_
FNDA:0,_ZSt22__copy_move_backward_aILb0EPPP4TaskS3_ET1_T0_S5_S4_
FN:878,_ZSt13copy_backwardIPPP4TaskS3_ET0_T_S5_S4_
FNDA:0,_ZSt13copy_backwardIPPP4TaskS3_ET0_T_S5_S4_
DA:233,0
DA:238,0
DA:239,0
DA:240,0
DA:257,0
DA:262,0
DA:263,0
DA:264,0
DA:316,462
DA:318,462
DA:353,154
DA:354,154
DA:412,121
DA:413,121
DA:448,154
DA:450,154
DA:451,154
DA:452,33
DA:453,121
DA:455,121
DA:456,154
DA:512,154
DA:521,154
DA:547,154
DA:548,154
DA:553,154
DA:555,154
DA:558,154
DA:642,154
DA:651,154
DA:762,0
DA:764,0
DA:765,0
DA:766,0
DA:767,0
DA:769,0
DA:770,0
DA:777,0
DA:787,0
DA:789,0
DA:795,0
DA:796,0
DA:823,0
DA:825,0
DA:828,0
DA:878,0
DA:888,0
end_of_record
SF:/usr/local/include/c++/14.2.0/bits/deque.tcc
FN:484,_ZNSt5dequeIP4TaskSaIS1_EE16_M_push_back_auxIJRKS1_EEEvDpOT_
FNDA:1224,_ZNSt5dequeIP4TaskSaIS1_EE16_M_push_back_auxIJRKS1_EEEvDpOT_
FN:576,_ZNSt5dequeIP4TaskSaIS1_EE16_M_pop_front_auxEv
FNDA:1224,_ZNSt5dequeIP4TaskSaIS1_EE16_M_pop_front_auxEv
FN:931,_ZNSt5dequeIP4TaskSaIS1_EE17_M_reallocate_mapEmb
FNDA:154,_ZNSt5dequeIP4TaskSaIS1_EE17_M_reallocate_mapEmb
DA:484,1224
DA:492,1224
DA:493,0
DA:496,1224
DA:497,1224
DA:501,1224
DA:507,1224
DA:509,1224
DA:516,1224
DA:576,1224
DA:579,1224
DA:581,1224
DA:582,1224
DA:583,1224
DA:584,1224
DA:931,154
DA:934,154
DA:935,154
DA:936,154
DA:939,154
DA:941,276
DA:942,138
DA:943,138
DA:944,138
DA:945,138
DA:946,138
DA:949,0
DA:950,0
DA:951,0
DA:955,32
DA:956,16
DA:959,16
DA:960,32
DA:961,16
DA:962,16
DA:963,16
DA:965,16
DA:967,16
DA:968,16
DA:971,154
DA:972,154
DA:973,154
end_of_record
SF:/usr/local/include/c++/14.2.0/bits/ptr_traits.h
FN:134,_ZNSt19__ptr_traits_ptr_toIPNSt8__detail10_Hash_nodeISt4pairIKjPN10ThreadPool10AsyncQueueEELb0EEES8_Lb0EE10pointer_toERS8_
FNDA:184,_ZNSt19__ptr_traits_ptr_toIPNSt8__detail10_Hash_nodeISt4pairIKjPN10ThreadPool10AsyncQueueEELb0EEES8_Lb0EE10pointer_toERS8_
FN:134,_ZNSt19__ptr_traits_ptr_toIPPNSt8__detail15_Hash_node_baseES2_Lb0EE10pointer_toERS2_
FNDA:90,_ZNSt19__ptr_traits_ptr_toIPPNSt8__detail15_Hash_node_baseES2_Lb0EE10pointer_toERS2_
FN:205,_ZSt12__to_addressIPNSt8__detail15_Hash_node_baseEEPT_S4_
FNDA:90,_ZSt12__to_addressIPNSt8__detail15_Hash_node_baseEEPT_S4_
FN:205,_ZSt12__to_addressINSt8__detail10_Hash_nodeISt4pairIKjPN10ThreadPool10AsyncQueueEELb0EEEEPT_SA_
FNDA:184,_ZSt12__to_addressINSt8__detail10_Hash_nodeISt4pairIKjPN10ThreadPool10AsyncQueueEELb0EEEEPT_SA_
DA:134,184
DA:135,184
DA:134,90
DA:135,90
DA:205,90
DA:208,90
DA:205,184
DA:208,184
end_of_record
SF:/usr/local/include/c++/14.2.0/bits/allocator.h
DA:161,270
DA:176,576
DA:182,576
end_of_record
SF:/usr/local/include/c++/14.2.0/bits/move.h
FN:51,_ZSt11__addressofINSt8__detail10_Hash_nodeISt4pairIKjPN10ThreadPool10AsyncQueueEELb0EEEEPT_RS9_
FNDA:184,_ZSt11__addressofINSt8__detail10_Hash_nodeISt4pairIKjPN10ThreadPool10AsyncQueueEELb0EEEEPT_RS9_
FN:51,_ZSt11__addressofIPNSt8__detail15_Hash_node_baseEEPT_RS3_
FNDA:90,_ZSt11__addressofIPNSt8__detail15_Hash_node_baseEEPT_RS3_
FN:51,_ZSt11__addressofINSt8__detail20_Prime_rehash_policyEEPT_RS2_
FNDA:194,_ZSt11__addressofINSt8__detail20_Prime_rehash_policyEEPT_RS2_
FN:70,_ZSt7forwardIRNSt8__detail14_Node_iteratorISt4pairIKjPN10ThreadPool10AsyncQueueEELb0ELb0EEEEOT_RNSt16remove_referenceISA_E4typeE
FNDA:184,_ZSt7forwardIRNSt8__detail14_Node_iteratorISt4pairIKjPN10ThreadPool10AsyncQueueEELb0ELb0EEEEOT_RNSt16remove_referenceISA_E4typeE
FN:70,_ZSt7forwardINSt8__detail14_Node_iteratorISt4pairIKjPN10ThreadPool10AsyncQueueEELb0ELb0EEEEOT_RNSt16remove_referenceIS9_E4typeE
FNDA:0,_ZSt7forwardINSt8__detail14_Node_iteratorISt4pairIKjPN10ThreadPool10AsyncQueueEELb0ELb0EEEEOT_RNSt16remove_referenceIS9_E4typeE
FN:70,_ZSt7forwardIRSt4pairIKjPN10ThreadPool10AsyncQueueEEEOT_RNSt16remove_referenceIS7_E4typeE
FNDA:184,_ZSt7forwardIRSt4pairIKjPN10ThreadPool10AsyncQueueEEEOT_RNSt16remove_referenceIS7_E4typeE
FN:70,_ZSt7forwardIRKSt4pairIKjPN10ThreadPool10AsyncQueueEEEOT_RNSt16remove_referenceIS8_E4typeE
FNDA:160708,_ZSt7forwardIRKSt4pairIKjPN10ThreadPool10AsyncQueueEEEOT_RNSt16remove_referenceIS8_E4typeE
FN:70,_ZSt7forwardIRKP4TaskEOT_RNSt16remove_referenceIS4_E4typeE
FNDA:161444,_ZSt7forwardIRKP4TaskEOT_RNSt16remove_referenceIS4_E4typeE
FN:70,_ZSt7forwardIPN10ThreadPool10AsyncQueueEEOT_RNSt16remove_referenceIS3_E4typeE
FNDA:1472,_ZSt7forwardIPN10ThreadPool10AsyncQueueEEOT_RNSt16remove_referenceIS3_E4typeE
FN:70,_ZSt7forwardIRjEOT_RNSt16remove_referenceIS1_E4typeE
FNDA:1472,_ZSt7forwardIRjEOT_RNSt16remove_referenceIS1_E4typeE
FN:70,_ZSt7forwardIbEOT_RNSt16remove_referenceIS0_E4typeE
FNDA:194,_ZSt7forwardIbEOT_RNSt16remove_referenceIS0_E4typeE
FN:162,_ZSt9addressofINSt8__detail10_Hash_nodeISt4pairIKjPN10ThreadPool10AsyncQueueEELb0EEEEPT_RS9_
FNDA:184,_ZSt9addressofINSt8__detail10_Hash_nodeISt4pairIKjPN10ThreadPool10AsyncQueueEELb0EEEEPT_RS9_
FN:162,_ZSt9addressofIPNSt8__detail15_Hash_node_baseEEPT_RS3_
FNDA:90,_ZSt9addressofIPNSt8__detail15_Hash_node_baseEEPT_RS3_
DA:51,184
DA:52,184
DA:51,90
DA:52,90
DA:51,194
DA:52,194
DA:70,184
DA:71,184
DA:70,0
DA:71,0
DA:70,184
DA:71,184
DA:70,160708
DA:71,160708
DA:70,161444
DA:71,161444
DA:70,1472
DA:71,1472
DA:70,1472
DA:71,1472
DA:70,194
DA:71,194
DA:162,184
DA:163,184
DA:162,90
DA:163,90
end_of_record
SF:/usr/local/include/c++/14.2.0/bits/stl_deque.h
FN:96,_ZSt16__deque_buf_sizem
FNDA:0,_ZSt16__deque_buf_sizem
FN:131,_ZNSt15_Deque_iteratorIP4TaskRS1_PS1_E14_S_buffer_sizeEv
FNDA:4348,_ZNSt15_Deque_iteratorIP4TaskRS1_PS1_E14_S_buffer_sizeEv
FN:151,_ZNSt15_Deque_iteratorIP4TaskRS1_PS1_EC2Ev
FNDA:368,_ZNSt15_Deque_iteratorIP4TaskRS1_PS1_EC2Ev
FN:168,_ZNSt15_Deque_iteratorIP4TaskRS1_PS1_EC2ERKS4_
FNDA:80478,_ZNSt15_Deque_iteratorIP4TaskRS1_PS1_EC2ERKS4_
FN:181,_ZNKSt15_Deque_iteratorIP4TaskRS1_PS1_EdeEv
FNDA:80110,_ZNKSt15_Deque_iteratorIP4TaskRS1_PS1_EdeEv
FN:263,_ZNSt15_Deque_iteratorIP4TaskRS1_PS1_E11_M_set_nodeEPS3_
FNDA:3124,_ZNSt15_Deque_iteratorIP4TaskRS1_PS1_E11_M_set_nodeEPS3_
FN:272,_ZSteqRKSt15_Deque_iteratorIP4TaskRS1_PS1_ES6_
FNDA:1999846,_ZSteqRKSt15_Deque_iteratorIP4TaskRS1_PS1_ES6_
FN:370,_ZStmiRKSt15_Deque_iteratorIP4TaskRS1_PS1_ES6_
FNDA:1224,_ZStmiRKSt15_Deque_iteratorIP4TaskRS1_PS1_ES6_
FN:458,_ZNSt11_Deque_baseIP4TaskSaIS1_EEC2Ev
FNDA:184,_ZNSt11_Deque_baseIP4TaskSaIS1_EEC2Ev
FN:516,_ZNSt11_Deque_baseIP4TaskSaIS1_EE16_Deque_impl_dataC2Ev
FNDA:184,_ZNSt11_Deque_baseIP4TaskSaIS1_EE16_Deque_impl_dataC2Ev
FN:545,_ZNSt11_Deque_baseIP4TaskSaIS1_EE11_Deque_implC2Ev
FNDA:184,_ZNSt11_Deque_baseIP4TaskSaIS1_EE11_Deque_implC2Ev
FN:568,_ZNSt11_Deque_baseIP4TaskSaIS1_EE19_M_get_Tp_allocatorEv
FNDA:80294,_ZNSt11_Deque_baseIP4TaskSaIS1_EE19_M_get_Tp_allocatorEv
FN:572,_ZNKSt11_Deque_baseIP4TaskSaIS1_EE19_M_get_Tp_allocatorEv
FNDA:1624,_ZNKSt11_Deque_baseIP4TaskSaIS1_EE19_M_get_Tp_allocatorEv
FN:576,_ZNKSt11_Deque_baseIP4TaskSaIS1_EE20_M_get_map_allocatorEv
FNDA:400,_ZNKSt11_Deque_baseIP4TaskSaIS1_EE20_M_get_map_allocatorEv
FN:580,_ZNSt11_Deque_baseIP4TaskSaIS1_EE16_M_allocate_nodeEv
FNDA:1408,_ZNSt11_Deque_baseIP4TaskSaIS1_EE16_M_allocate_nodeEv
FN:587,_ZNSt11_Deque_baseIP4TaskSaIS1_EE18_M_deallocate_nodeEPS1_
FNDA:1408,_ZNSt11_Deque_baseIP4TaskSaIS1_EE18_M_deallocate_nodeEPS1_
FN:594,_ZNSt11_Deque_baseIP4TaskSaIS1_EE15_M_allocate_mapEm
FNDA:200,_ZNSt11_Deque_baseIP4TaskSaIS1_EE15_M_allocate_mapEm
FN:601,_ZNSt11_Deque_baseIP4TaskSaIS1_EE17_M_deallocate_mapEPPS1_m
FNDA:200,_ZNSt11_Deque_baseIP4TaskSaIS1_EE17_M_deallocate_mapEPPS1_m
FN:617,_ZNSt11_Deque_baseIP4TaskSaIS1_EED2Ev
FNDA:184,_ZNSt11_Deque_baseIP4TaskSaIS1_EED2Ev
FN:638,_ZNSt11_Deque_baseIP4TaskSaIS1_EE17_M_initialize_mapEm
FNDA:184,_ZNSt11_Deque_baseIP4TaskSaIS1_EE17_M_initialize_mapEm
FN:677,_ZNSt11_Deque_baseIP4TaskSaIS1_EE15_M_create_nodesEPPS1_S5_
FNDA:184,_ZNSt11_Deque_baseIP4TaskSaIS1_EE15_M_create_nodesEPPS1_S5_
FN:695,_ZNSt11_Deque_baseIP4TaskSaIS1_EE16_M_destroy_nodesEPPS1_S5_
FNDA:184,_ZNSt11_Deque_baseIP4TaskSaIS1_EE16_M_destroy_nodesEPPS1_S5_
FN:855,_ZNSt5dequeIP4TaskSaIS1_EEC2Ev
FNDA:184,_ZNSt5dequeIP4TaskSaIS1_EEC2Ev
FN:1027,_ZNSt5dequeIP4TaskSaIS1_EED2Ev
FNDA:184,_ZNSt5dequeIP4TaskSaIS1_EED2Ev
FN:1151,_ZNSt5dequeIP4TaskSaIS1_EE5beginEv
FNDA:80294,_ZNSt5dequeIP4TaskSaIS1_EE5beginEv
FN:1170,_ZNSt5dequeIP4TaskSaIS1_EE3endEv
FNDA:184,_ZNSt5dequeIP4TaskSaIS1_EE3endEv
FN:1268,_ZNKSt5dequeIP4TaskSaIS1_EE4sizeEv
FNDA:1224,_ZNKSt5dequeIP4TaskSaIS1_EE4sizeEv
FN:1274,_ZNKSt5dequeIP4TaskSaIS1_EE8max_sizeEv
FNDA:1224,_ZNKSt5dequeIP4TaskSaIS1_EE8max_sizeEv
FN:1347,_ZNKSt5dequeIP4TaskSaIS1_EE5emptyEv
FNDA:1999846,_ZNKSt5dequeIP4TaskSaIS1_EE5emptyEv
FN:1444,_ZNSt5dequeIP4TaskSaIS1_EE5frontEv
FNDA:80110,_ZNSt5dequeIP4TaskSaIS1_EE5frontEv
FN:1538,_ZNSt5dequeIP4TaskSaIS1_EE9push_backERKS1_
FNDA:80110,_ZNSt5dequeIP4TaskSaIS1_EE9push_backERKS1_
FN:1574,_ZNSt5dequeIP4TaskSaIS1_EE9pop_frontEv
FNDA:80110,_ZNSt5dequeIP4TaskSaIS1_EE9pop_frontEv
FN:1876,_ZNSt5dequeIP4TaskSaIS1_EE11_S_max_sizeERKS2_
FNDA:1224,_ZNSt5dequeIP4TaskSaIS1_EE11_S_max_sizeERKS2_
FN:2087,_ZNSt5dequeIP4TaskSaIS1_EE15_M_destroy_dataESt15_Deque_iteratorIS1_RS1_PS1_ES7_RKS2_
FNDA:184,_ZNSt5dequeIP4TaskSaIS1_EE15_M_destroy_dataESt15_Deque_iteratorIS1_RS1_PS1_ES7_RKS2_
FN:2168,_ZNSt5dequeIP4TaskSaIS1_EE22_M_reserve_map_at_backEm
FNDA:1224,_ZNSt5dequeIP4TaskSaIS1_EE22_M_reserve_map_at_backEm
DA:96,0
DA:98,0
DA:131,4348
DA:132,4348
DA:151,368
DA:152,368
DA:168,80478
DA:169,80478
DA:170,80478
DA:181,80110
DA:182,80110
DA:263,3124
DA:265,3124
DA:266,3124
DA:267,3124
DA:268,3124
DA:272,1999846
DA:273,1999846
DA:370,1224
DA:372,1224
DA:373,1224
DA:374,1224
DA:375,1224
DA:458,184
DA:459,184
DA:460,184
DA:516,184
DA:517,184
DA:518,184
DA:545,184
DA:547,184
DA:548,184
DA:568,80294
DA:569,80294
DA:572,1624
DA:573,1624
DA:576,400
DA:577,800
DA:580,1408
DA:583,2816
DA:587,1408
DA:590,1408
DA:591,1408
DA:594,200
DA:596,200
DA:597,400
DA:601,200
DA:603,200
DA:605,200
DA:617,184
DA:620,184
DA:622,184
DA:623,184
DA:624,184
DA:626,184
DA:638,184
DA:641,184
DA:644,368
DA:645,184
DA:646,184
DA:653,184
DA:654,184
DA:655,184
DA:658,184
DA:659,0
DA:661,0
DA:662,0
DA:663,0
DA:664,0
DA:667,184
DA:668,184
DA:669,184
DA:670,368
DA:671,184
DA:672,184
DA:673,184
DA:677,184
DA:683,368
DA:684,184
DA:686,0
DA:688,0
DA:689,0
DA:691,184
DA:695,184
DA:699,368
DA:700,184
DA:701,184
DA:855,184
DA:1027,184
DA:1028,184
DA:1151,80294
DA:1152,80294
DA:1170,184
DA:1171,184
DA:1268,1224
DA:1269,1224
DA:1274,1224
DA:1275,1224
DA:1347,1999846
DA:1348,1999846
DA:1444,80110
DA:1447,80110
DA:1538,80110
DA:1540,80110
DA:1541,80110
DA:1543,78886
DA:1545,78886
DA:1548,1224
DA:1549,80110
DA:1574,80110
DA:1577,80110
DA:1578,80110
DA:1580,78886
DA:1582,78886
DA:1585,1224
DA:1586,80110
DA:1876,1224
DA:1878,1224
DA:1879,1224
DA:1880,1224
DA:2087,184
DA:2092,184
DA:2168,1224
DA:2170,1224
DA:2171,1224
DA:2172,154
DA:2173,1224
end_of_record
